
Car_final.elf:     file format elf32-avr

Sections:
Idx Name          Size      VMA       LMA       File off  Algn
  0 .text         00000df4  00000000  00000000  00000094  2**1
                  CONTENTS, ALLOC, LOAD, READONLY, CODE
  1 .data         00000010  00800060  00000df4  00000e88  2**0
                  CONTENTS, ALLOC, LOAD, DATA
  2 .bss          00000007  00800070  00800070  00000e98  2**0
                  ALLOC
  3 .stab         00001830  00000000  00000000  00000e98  2**2
                  CONTENTS, READONLY, DEBUGGING
  4 .stabstr      000008c0  00000000  00000000  000026c8  2**0
                  CONTENTS, READONLY, DEBUGGING

Disassembly of section .text:

00000000 <__vectors>:
   0:	0c 94 2a 00 	jmp	0x54	; 0x54 <__ctors_end>
   4:	0c 94 47 00 	jmp	0x8e	; 0x8e <__bad_interrupt>
   8:	0c 94 47 00 	jmp	0x8e	; 0x8e <__bad_interrupt>
   c:	0c 94 47 00 	jmp	0x8e	; 0x8e <__bad_interrupt>
  10:	0c 94 47 00 	jmp	0x8e	; 0x8e <__bad_interrupt>
  14:	0c 94 47 00 	jmp	0x8e	; 0x8e <__bad_interrupt>
  18:	0c 94 47 00 	jmp	0x8e	; 0x8e <__bad_interrupt>
  1c:	0c 94 47 00 	jmp	0x8e	; 0x8e <__bad_interrupt>
  20:	0c 94 47 00 	jmp	0x8e	; 0x8e <__bad_interrupt>
  24:	0c 94 47 00 	jmp	0x8e	; 0x8e <__bad_interrupt>
  28:	0c 94 63 05 	jmp	0xac6	; 0xac6 <__vector_10>
  2c:	0c 94 96 05 	jmp	0xb2c	; 0xb2c <__vector_11>
  30:	0c 94 47 00 	jmp	0x8e	; 0x8e <__bad_interrupt>
  34:	0c 94 47 00 	jmp	0x8e	; 0x8e <__bad_interrupt>
  38:	0c 94 47 00 	jmp	0x8e	; 0x8e <__bad_interrupt>
  3c:	0c 94 47 00 	jmp	0x8e	; 0x8e <__bad_interrupt>
  40:	0c 94 47 00 	jmp	0x8e	; 0x8e <__bad_interrupt>
  44:	0c 94 47 00 	jmp	0x8e	; 0x8e <__bad_interrupt>
  48:	0c 94 47 00 	jmp	0x8e	; 0x8e <__bad_interrupt>
  4c:	0c 94 47 00 	jmp	0x8e	; 0x8e <__bad_interrupt>
  50:	0c 94 47 00 	jmp	0x8e	; 0x8e <__bad_interrupt>

00000054 <__ctors_end>:
  54:	11 24       	eor	r1, r1
  56:	1f be       	out	0x3f, r1	; 63
  58:	cf e5       	ldi	r28, 0x5F	; 95
  5a:	d8 e0       	ldi	r29, 0x08	; 8
  5c:	de bf       	out	0x3e, r29	; 62
  5e:	cd bf       	out	0x3d, r28	; 61

00000060 <__do_copy_data>:
  60:	10 e0       	ldi	r17, 0x00	; 0
  62:	a0 e6       	ldi	r26, 0x60	; 96
  64:	b0 e0       	ldi	r27, 0x00	; 0
  66:	e4 ef       	ldi	r30, 0xF4	; 244
  68:	fd e0       	ldi	r31, 0x0D	; 13
  6a:	02 c0       	rjmp	.+4      	; 0x70 <.do_copy_data_start>

0000006c <.do_copy_data_loop>:
  6c:	05 90       	lpm	r0, Z+
  6e:	0d 92       	st	X+, r0

00000070 <.do_copy_data_start>:
  70:	a0 37       	cpi	r26, 0x70	; 112
  72:	b1 07       	cpc	r27, r17
  74:	d9 f7       	brne	.-10     	; 0x6c <.do_copy_data_loop>

00000076 <__do_clear_bss>:
  76:	10 e0       	ldi	r17, 0x00	; 0
  78:	a0 e7       	ldi	r26, 0x70	; 112
  7a:	b0 e0       	ldi	r27, 0x00	; 0
  7c:	01 c0       	rjmp	.+2      	; 0x80 <.do_clear_bss_start>

0000007e <.do_clear_bss_loop>:
  7e:	1d 92       	st	X+, r1

00000080 <.do_clear_bss_start>:
  80:	a7 37       	cpi	r26, 0x77	; 119
  82:	b1 07       	cpc	r27, r17
  84:	e1 f7       	brne	.-8      	; 0x7e <.do_clear_bss_loop>
  86:	0e 94 ce 05 	call	0xb9c	; 0xb9c <main>
  8a:	0c 94 f8 06 	jmp	0xdf0	; 0xdf0 <_exit>

0000008e <__bad_interrupt>:
  8e:	0c 94 00 00 	jmp	0	; 0x0 <__vectors>

00000092 <DIO_SETpinDir>:
#include "BIT_MATH.h"
#include "DIO_interface.h"
#include "DIO_register.h"


uint8_t DIO_SETpinDir(uint8_t u8_PORT,uint8_t u8_PIN,uint8_t u8_STAT){
  92:	df 93       	push	r29
  94:	cf 93       	push	r28
  96:	cd b7       	in	r28, 0x3d	; 61
  98:	de b7       	in	r29, 0x3e	; 62
  9a:	28 97       	sbiw	r28, 0x08	; 8
  9c:	0f b6       	in	r0, 0x3f	; 63
  9e:	f8 94       	cli
  a0:	de bf       	out	0x3e, r29	; 62
  a2:	0f be       	out	0x3f, r0	; 63
  a4:	cd bf       	out	0x3d, r28	; 61
  a6:	8a 83       	std	Y+2, r24	; 0x02
  a8:	6b 83       	std	Y+3, r22	; 0x03
  aa:	4c 83       	std	Y+4, r20	; 0x04
	uint8_t Local_u8Error=OK;//variable using in Error check
  ac:	81 e0       	ldi	r24, 0x01	; 1
  ae:	89 83       	std	Y+1, r24	; 0x01
	if(u8_PIN<=DIO_PIN7)//check if the chosen is correct or not
  b0:	8b 81       	ldd	r24, Y+3	; 0x03
  b2:	88 30       	cpi	r24, 0x08	; 8
  b4:	08 f0       	brcs	.+2      	; 0xb8 <DIO_SETpinDir+0x26>
  b6:	f1 c0       	rjmp	.+482    	; 0x29a <DIO_SETpinDir+0x208>
	{
		/*If the direction of the pin is output*/
		if(u8_STAT==DIO_OUTPUT)
  b8:	8c 81       	ldd	r24, Y+4	; 0x04
  ba:	81 30       	cpi	r24, 0x01	; 1
  bc:	09 f0       	breq	.+2      	; 0xc0 <DIO_SETpinDir+0x2e>
  be:	71 c0       	rjmp	.+226    	; 0x1a2 <DIO_SETpinDir+0x110>
		{
			/*Choose which port*/
			switch(u8_PORT)
  c0:	8a 81       	ldd	r24, Y+2	; 0x02
  c2:	28 2f       	mov	r18, r24
  c4:	30 e0       	ldi	r19, 0x00	; 0
  c6:	38 87       	std	Y+8, r19	; 0x08
  c8:	2f 83       	std	Y+7, r18	; 0x07
  ca:	8f 81       	ldd	r24, Y+7	; 0x07
  cc:	98 85       	ldd	r25, Y+8	; 0x08
  ce:	81 30       	cpi	r24, 0x01	; 1
  d0:	91 05       	cpc	r25, r1
  d2:	49 f1       	breq	.+82     	; 0x126 <DIO_SETpinDir+0x94>
  d4:	2f 81       	ldd	r18, Y+7	; 0x07
  d6:	38 85       	ldd	r19, Y+8	; 0x08
  d8:	22 30       	cpi	r18, 0x02	; 2
  da:	31 05       	cpc	r19, r1
  dc:	2c f4       	brge	.+10     	; 0xe8 <DIO_SETpinDir+0x56>
  de:	8f 81       	ldd	r24, Y+7	; 0x07
  e0:	98 85       	ldd	r25, Y+8	; 0x08
  e2:	00 97       	sbiw	r24, 0x00	; 0
  e4:	61 f0       	breq	.+24     	; 0xfe <DIO_SETpinDir+0x6c>
  e6:	5b c0       	rjmp	.+182    	; 0x19e <DIO_SETpinDir+0x10c>
  e8:	2f 81       	ldd	r18, Y+7	; 0x07
  ea:	38 85       	ldd	r19, Y+8	; 0x08
  ec:	22 30       	cpi	r18, 0x02	; 2
  ee:	31 05       	cpc	r19, r1
  f0:	71 f1       	breq	.+92     	; 0x14e <DIO_SETpinDir+0xbc>
  f2:	8f 81       	ldd	r24, Y+7	; 0x07
  f4:	98 85       	ldd	r25, Y+8	; 0x08
  f6:	83 30       	cpi	r24, 0x03	; 3
  f8:	91 05       	cpc	r25, r1
  fa:	e9 f1       	breq	.+122    	; 0x176 <DIO_SETpinDir+0xe4>
  fc:	50 c0       	rjmp	.+160    	; 0x19e <DIO_SETpinDir+0x10c>
			{
			case DIO_PORTA: SET_BIT(DDRA,u8_PIN);break;
  fe:	aa e3       	ldi	r26, 0x3A	; 58
 100:	b0 e0       	ldi	r27, 0x00	; 0
 102:	ea e3       	ldi	r30, 0x3A	; 58
 104:	f0 e0       	ldi	r31, 0x00	; 0
 106:	80 81       	ld	r24, Z
 108:	48 2f       	mov	r20, r24
 10a:	8b 81       	ldd	r24, Y+3	; 0x03
 10c:	28 2f       	mov	r18, r24
 10e:	30 e0       	ldi	r19, 0x00	; 0
 110:	81 e0       	ldi	r24, 0x01	; 1
 112:	90 e0       	ldi	r25, 0x00	; 0
 114:	02 2e       	mov	r0, r18
 116:	02 c0       	rjmp	.+4      	; 0x11c <DIO_SETpinDir+0x8a>
 118:	88 0f       	add	r24, r24
 11a:	99 1f       	adc	r25, r25
 11c:	0a 94       	dec	r0
 11e:	e2 f7       	brpl	.-8      	; 0x118 <DIO_SETpinDir+0x86>
 120:	84 2b       	or	r24, r20
 122:	8c 93       	st	X, r24
 124:	bb c0       	rjmp	.+374    	; 0x29c <DIO_SETpinDir+0x20a>
			case DIO_PORTB: SET_BIT(DDRB,u8_PIN);break;
 126:	a7 e3       	ldi	r26, 0x37	; 55
 128:	b0 e0       	ldi	r27, 0x00	; 0
 12a:	e7 e3       	ldi	r30, 0x37	; 55
 12c:	f0 e0       	ldi	r31, 0x00	; 0
 12e:	80 81       	ld	r24, Z
 130:	48 2f       	mov	r20, r24
 132:	8b 81       	ldd	r24, Y+3	; 0x03
 134:	28 2f       	mov	r18, r24
 136:	30 e0       	ldi	r19, 0x00	; 0
 138:	81 e0       	ldi	r24, 0x01	; 1
 13a:	90 e0       	ldi	r25, 0x00	; 0
 13c:	02 2e       	mov	r0, r18
 13e:	02 c0       	rjmp	.+4      	; 0x144 <DIO_SETpinDir+0xb2>
 140:	88 0f       	add	r24, r24
 142:	99 1f       	adc	r25, r25
 144:	0a 94       	dec	r0
 146:	e2 f7       	brpl	.-8      	; 0x140 <DIO_SETpinDir+0xae>
 148:	84 2b       	or	r24, r20
 14a:	8c 93       	st	X, r24
 14c:	a7 c0       	rjmp	.+334    	; 0x29c <DIO_SETpinDir+0x20a>
			case DIO_PORTC: SET_BIT(DDRC,u8_PIN);break;
 14e:	a4 e3       	ldi	r26, 0x34	; 52
 150:	b0 e0       	ldi	r27, 0x00	; 0
 152:	e4 e3       	ldi	r30, 0x34	; 52
 154:	f0 e0       	ldi	r31, 0x00	; 0
 156:	80 81       	ld	r24, Z
 158:	48 2f       	mov	r20, r24
 15a:	8b 81       	ldd	r24, Y+3	; 0x03
 15c:	28 2f       	mov	r18, r24
 15e:	30 e0       	ldi	r19, 0x00	; 0
 160:	81 e0       	ldi	r24, 0x01	; 1
 162:	90 e0       	ldi	r25, 0x00	; 0
 164:	02 2e       	mov	r0, r18
 166:	02 c0       	rjmp	.+4      	; 0x16c <DIO_SETpinDir+0xda>
 168:	88 0f       	add	r24, r24
 16a:	99 1f       	adc	r25, r25
 16c:	0a 94       	dec	r0
 16e:	e2 f7       	brpl	.-8      	; 0x168 <DIO_SETpinDir+0xd6>
 170:	84 2b       	or	r24, r20
 172:	8c 93       	st	X, r24
 174:	93 c0       	rjmp	.+294    	; 0x29c <DIO_SETpinDir+0x20a>
			case DIO_PORTD: SET_BIT(DDRD,u8_PIN);break;
 176:	a1 e3       	ldi	r26, 0x31	; 49
 178:	b0 e0       	ldi	r27, 0x00	; 0
 17a:	e1 e3       	ldi	r30, 0x31	; 49
 17c:	f0 e0       	ldi	r31, 0x00	; 0
 17e:	80 81       	ld	r24, Z
 180:	48 2f       	mov	r20, r24
 182:	8b 81       	ldd	r24, Y+3	; 0x03
 184:	28 2f       	mov	r18, r24
 186:	30 e0       	ldi	r19, 0x00	; 0
 188:	81 e0       	ldi	r24, 0x01	; 1
 18a:	90 e0       	ldi	r25, 0x00	; 0
 18c:	02 2e       	mov	r0, r18
 18e:	02 c0       	rjmp	.+4      	; 0x194 <DIO_SETpinDir+0x102>
 190:	88 0f       	add	r24, r24
 192:	99 1f       	adc	r25, r25
 194:	0a 94       	dec	r0
 196:	e2 f7       	brpl	.-8      	; 0x190 <DIO_SETpinDir+0xfe>
 198:	84 2b       	or	r24, r20
 19a:	8c 93       	st	X, r24
 19c:	7f c0       	rjmp	.+254    	; 0x29c <DIO_SETpinDir+0x20a>
			default:Local_u8Error=NOK;
 19e:	19 82       	std	Y+1, r1	; 0x01
 1a0:	7d c0       	rjmp	.+250    	; 0x29c <DIO_SETpinDir+0x20a>
			}
		}
		/*If the direction of the pin is input*/
		else if(u8_STAT==DIO_INPUT)
 1a2:	8c 81       	ldd	r24, Y+4	; 0x04
 1a4:	88 23       	and	r24, r24
 1a6:	09 f0       	breq	.+2      	; 0x1aa <DIO_SETpinDir+0x118>
 1a8:	76 c0       	rjmp	.+236    	; 0x296 <DIO_SETpinDir+0x204>
		{
			/*Choose which port*/
			switch(u8_PORT)
 1aa:	8a 81       	ldd	r24, Y+2	; 0x02
 1ac:	28 2f       	mov	r18, r24
 1ae:	30 e0       	ldi	r19, 0x00	; 0
 1b0:	3e 83       	std	Y+6, r19	; 0x06
 1b2:	2d 83       	std	Y+5, r18	; 0x05
 1b4:	8d 81       	ldd	r24, Y+5	; 0x05
 1b6:	9e 81       	ldd	r25, Y+6	; 0x06
 1b8:	81 30       	cpi	r24, 0x01	; 1
 1ba:	91 05       	cpc	r25, r1
 1bc:	59 f1       	breq	.+86     	; 0x214 <DIO_SETpinDir+0x182>
 1be:	2d 81       	ldd	r18, Y+5	; 0x05
 1c0:	3e 81       	ldd	r19, Y+6	; 0x06
 1c2:	22 30       	cpi	r18, 0x02	; 2
 1c4:	31 05       	cpc	r19, r1
 1c6:	2c f4       	brge	.+10     	; 0x1d2 <DIO_SETpinDir+0x140>
 1c8:	8d 81       	ldd	r24, Y+5	; 0x05
 1ca:	9e 81       	ldd	r25, Y+6	; 0x06
 1cc:	00 97       	sbiw	r24, 0x00	; 0
 1ce:	69 f0       	breq	.+26     	; 0x1ea <DIO_SETpinDir+0x158>
 1d0:	60 c0       	rjmp	.+192    	; 0x292 <DIO_SETpinDir+0x200>
 1d2:	2d 81       	ldd	r18, Y+5	; 0x05
 1d4:	3e 81       	ldd	r19, Y+6	; 0x06
 1d6:	22 30       	cpi	r18, 0x02	; 2
 1d8:	31 05       	cpc	r19, r1
 1da:	89 f1       	breq	.+98     	; 0x23e <DIO_SETpinDir+0x1ac>
 1dc:	8d 81       	ldd	r24, Y+5	; 0x05
 1de:	9e 81       	ldd	r25, Y+6	; 0x06
 1e0:	83 30       	cpi	r24, 0x03	; 3
 1e2:	91 05       	cpc	r25, r1
 1e4:	09 f4       	brne	.+2      	; 0x1e8 <DIO_SETpinDir+0x156>
 1e6:	40 c0       	rjmp	.+128    	; 0x268 <DIO_SETpinDir+0x1d6>
 1e8:	54 c0       	rjmp	.+168    	; 0x292 <DIO_SETpinDir+0x200>
			{
			case DIO_PORTA: CLR_BIT(DDRA,u8_PIN);break;
 1ea:	aa e3       	ldi	r26, 0x3A	; 58
 1ec:	b0 e0       	ldi	r27, 0x00	; 0
 1ee:	ea e3       	ldi	r30, 0x3A	; 58
 1f0:	f0 e0       	ldi	r31, 0x00	; 0
 1f2:	80 81       	ld	r24, Z
 1f4:	48 2f       	mov	r20, r24
 1f6:	8b 81       	ldd	r24, Y+3	; 0x03
 1f8:	28 2f       	mov	r18, r24
 1fa:	30 e0       	ldi	r19, 0x00	; 0
 1fc:	81 e0       	ldi	r24, 0x01	; 1
 1fe:	90 e0       	ldi	r25, 0x00	; 0
 200:	02 2e       	mov	r0, r18
 202:	02 c0       	rjmp	.+4      	; 0x208 <DIO_SETpinDir+0x176>
 204:	88 0f       	add	r24, r24
 206:	99 1f       	adc	r25, r25
 208:	0a 94       	dec	r0
 20a:	e2 f7       	brpl	.-8      	; 0x204 <DIO_SETpinDir+0x172>
 20c:	80 95       	com	r24
 20e:	84 23       	and	r24, r20
 210:	8c 93       	st	X, r24
 212:	44 c0       	rjmp	.+136    	; 0x29c <DIO_SETpinDir+0x20a>
			case DIO_PORTB: CLR_BIT(DDRB,u8_PIN);break;
 214:	a7 e3       	ldi	r26, 0x37	; 55
 216:	b0 e0       	ldi	r27, 0x00	; 0
 218:	e7 e3       	ldi	r30, 0x37	; 55
 21a:	f0 e0       	ldi	r31, 0x00	; 0
 21c:	80 81       	ld	r24, Z
 21e:	48 2f       	mov	r20, r24
 220:	8b 81       	ldd	r24, Y+3	; 0x03
 222:	28 2f       	mov	r18, r24
 224:	30 e0       	ldi	r19, 0x00	; 0
 226:	81 e0       	ldi	r24, 0x01	; 1
 228:	90 e0       	ldi	r25, 0x00	; 0
 22a:	02 2e       	mov	r0, r18
 22c:	02 c0       	rjmp	.+4      	; 0x232 <DIO_SETpinDir+0x1a0>
 22e:	88 0f       	add	r24, r24
 230:	99 1f       	adc	r25, r25
 232:	0a 94       	dec	r0
 234:	e2 f7       	brpl	.-8      	; 0x22e <DIO_SETpinDir+0x19c>
 236:	80 95       	com	r24
 238:	84 23       	and	r24, r20
 23a:	8c 93       	st	X, r24
 23c:	2f c0       	rjmp	.+94     	; 0x29c <DIO_SETpinDir+0x20a>
			case DIO_PORTC: CLR_BIT(DDRC,u8_PIN);break;
 23e:	a4 e3       	ldi	r26, 0x34	; 52
 240:	b0 e0       	ldi	r27, 0x00	; 0
 242:	e4 e3       	ldi	r30, 0x34	; 52
 244:	f0 e0       	ldi	r31, 0x00	; 0
 246:	80 81       	ld	r24, Z
 248:	48 2f       	mov	r20, r24
 24a:	8b 81       	ldd	r24, Y+3	; 0x03
 24c:	28 2f       	mov	r18, r24
 24e:	30 e0       	ldi	r19, 0x00	; 0
 250:	81 e0       	ldi	r24, 0x01	; 1
 252:	90 e0       	ldi	r25, 0x00	; 0
 254:	02 2e       	mov	r0, r18
 256:	02 c0       	rjmp	.+4      	; 0x25c <DIO_SETpinDir+0x1ca>
 258:	88 0f       	add	r24, r24
 25a:	99 1f       	adc	r25, r25
 25c:	0a 94       	dec	r0
 25e:	e2 f7       	brpl	.-8      	; 0x258 <DIO_SETpinDir+0x1c6>
 260:	80 95       	com	r24
 262:	84 23       	and	r24, r20
 264:	8c 93       	st	X, r24
 266:	1a c0       	rjmp	.+52     	; 0x29c <DIO_SETpinDir+0x20a>
			case DIO_PORTD: CLR_BIT(DDRD,u8_PIN);break;
 268:	a1 e3       	ldi	r26, 0x31	; 49
 26a:	b0 e0       	ldi	r27, 0x00	; 0
 26c:	e1 e3       	ldi	r30, 0x31	; 49
 26e:	f0 e0       	ldi	r31, 0x00	; 0
 270:	80 81       	ld	r24, Z
 272:	48 2f       	mov	r20, r24
 274:	8b 81       	ldd	r24, Y+3	; 0x03
 276:	28 2f       	mov	r18, r24
 278:	30 e0       	ldi	r19, 0x00	; 0
 27a:	81 e0       	ldi	r24, 0x01	; 1
 27c:	90 e0       	ldi	r25, 0x00	; 0
 27e:	02 2e       	mov	r0, r18
 280:	02 c0       	rjmp	.+4      	; 0x286 <DIO_SETpinDir+0x1f4>
 282:	88 0f       	add	r24, r24
 284:	99 1f       	adc	r25, r25
 286:	0a 94       	dec	r0
 288:	e2 f7       	brpl	.-8      	; 0x282 <DIO_SETpinDir+0x1f0>
 28a:	80 95       	com	r24
 28c:	84 23       	and	r24, r20
 28e:	8c 93       	st	X, r24
 290:	05 c0       	rjmp	.+10     	; 0x29c <DIO_SETpinDir+0x20a>
			default:Local_u8Error=NOK;break;
 292:	19 82       	std	Y+1, r1	; 0x01
 294:	03 c0       	rjmp	.+6      	; 0x29c <DIO_SETpinDir+0x20a>
			}
		}
		else
		{
			Local_u8Error=NOK;
 296:	19 82       	std	Y+1, r1	; 0x01
 298:	01 c0       	rjmp	.+2      	; 0x29c <DIO_SETpinDir+0x20a>
		}
	}
	else
	{
		Local_u8Error=NOK;
 29a:	19 82       	std	Y+1, r1	; 0x01
	}
	return Local_u8Error;
 29c:	89 81       	ldd	r24, Y+1	; 0x01
}
 29e:	28 96       	adiw	r28, 0x08	; 8
 2a0:	0f b6       	in	r0, 0x3f	; 63
 2a2:	f8 94       	cli
 2a4:	de bf       	out	0x3e, r29	; 62
 2a6:	0f be       	out	0x3f, r0	; 63
 2a8:	cd bf       	out	0x3d, r28	; 61
 2aa:	cf 91       	pop	r28
 2ac:	df 91       	pop	r29
 2ae:	08 95       	ret

000002b0 <DIO_SETpinVal>:

uint8_t DIO_SETpinVal(uint8_t u8_PORT,uint8_t u8_PIN,uint8_t u8_VAL){
 2b0:	df 93       	push	r29
 2b2:	cf 93       	push	r28
 2b4:	cd b7       	in	r28, 0x3d	; 61
 2b6:	de b7       	in	r29, 0x3e	; 62
 2b8:	28 97       	sbiw	r28, 0x08	; 8
 2ba:	0f b6       	in	r0, 0x3f	; 63
 2bc:	f8 94       	cli
 2be:	de bf       	out	0x3e, r29	; 62
 2c0:	0f be       	out	0x3f, r0	; 63
 2c2:	cd bf       	out	0x3d, r28	; 61
 2c4:	8a 83       	std	Y+2, r24	; 0x02
 2c6:	6b 83       	std	Y+3, r22	; 0x03
 2c8:	4c 83       	std	Y+4, r20	; 0x04
	uint8_t Local_u8Error=OK;//variable using in Error check
 2ca:	81 e0       	ldi	r24, 0x01	; 1
 2cc:	89 83       	std	Y+1, r24	; 0x01
	if(u8_PIN<=DIO_PIN7)//check if the chosen is correct or not
 2ce:	8b 81       	ldd	r24, Y+3	; 0x03
 2d0:	88 30       	cpi	r24, 0x08	; 8
 2d2:	08 f0       	brcs	.+2      	; 0x2d6 <DIO_SETpinVal+0x26>
 2d4:	f1 c0       	rjmp	.+482    	; 0x4b8 <DIO_SETpinVal+0x208>
	{
		/*If the chosen value is high*/
		if(u8_VAL==DIO_HIGH)
 2d6:	8c 81       	ldd	r24, Y+4	; 0x04
 2d8:	81 30       	cpi	r24, 0x01	; 1
 2da:	09 f0       	breq	.+2      	; 0x2de <DIO_SETpinVal+0x2e>
 2dc:	71 c0       	rjmp	.+226    	; 0x3c0 <DIO_SETpinVal+0x110>
		{
			/*Choose which port*/
			switch(u8_PORT)
 2de:	8a 81       	ldd	r24, Y+2	; 0x02
 2e0:	28 2f       	mov	r18, r24
 2e2:	30 e0       	ldi	r19, 0x00	; 0
 2e4:	38 87       	std	Y+8, r19	; 0x08
 2e6:	2f 83       	std	Y+7, r18	; 0x07
 2e8:	8f 81       	ldd	r24, Y+7	; 0x07
 2ea:	98 85       	ldd	r25, Y+8	; 0x08
 2ec:	81 30       	cpi	r24, 0x01	; 1
 2ee:	91 05       	cpc	r25, r1
 2f0:	49 f1       	breq	.+82     	; 0x344 <DIO_SETpinVal+0x94>
 2f2:	2f 81       	ldd	r18, Y+7	; 0x07
 2f4:	38 85       	ldd	r19, Y+8	; 0x08
 2f6:	22 30       	cpi	r18, 0x02	; 2
 2f8:	31 05       	cpc	r19, r1
 2fa:	2c f4       	brge	.+10     	; 0x306 <DIO_SETpinVal+0x56>
 2fc:	8f 81       	ldd	r24, Y+7	; 0x07
 2fe:	98 85       	ldd	r25, Y+8	; 0x08
 300:	00 97       	sbiw	r24, 0x00	; 0
 302:	61 f0       	breq	.+24     	; 0x31c <DIO_SETpinVal+0x6c>
 304:	5b c0       	rjmp	.+182    	; 0x3bc <DIO_SETpinVal+0x10c>
 306:	2f 81       	ldd	r18, Y+7	; 0x07
 308:	38 85       	ldd	r19, Y+8	; 0x08
 30a:	22 30       	cpi	r18, 0x02	; 2
 30c:	31 05       	cpc	r19, r1
 30e:	71 f1       	breq	.+92     	; 0x36c <DIO_SETpinVal+0xbc>
 310:	8f 81       	ldd	r24, Y+7	; 0x07
 312:	98 85       	ldd	r25, Y+8	; 0x08
 314:	83 30       	cpi	r24, 0x03	; 3
 316:	91 05       	cpc	r25, r1
 318:	e9 f1       	breq	.+122    	; 0x394 <DIO_SETpinVal+0xe4>
 31a:	50 c0       	rjmp	.+160    	; 0x3bc <DIO_SETpinVal+0x10c>
			{
			case DIO_PORTA: SET_BIT(PORTA,u8_PIN);break;
 31c:	ab e3       	ldi	r26, 0x3B	; 59
 31e:	b0 e0       	ldi	r27, 0x00	; 0
 320:	eb e3       	ldi	r30, 0x3B	; 59
 322:	f0 e0       	ldi	r31, 0x00	; 0
 324:	80 81       	ld	r24, Z
 326:	48 2f       	mov	r20, r24
 328:	8b 81       	ldd	r24, Y+3	; 0x03
 32a:	28 2f       	mov	r18, r24
 32c:	30 e0       	ldi	r19, 0x00	; 0
 32e:	81 e0       	ldi	r24, 0x01	; 1
 330:	90 e0       	ldi	r25, 0x00	; 0
 332:	02 2e       	mov	r0, r18
 334:	02 c0       	rjmp	.+4      	; 0x33a <DIO_SETpinVal+0x8a>
 336:	88 0f       	add	r24, r24
 338:	99 1f       	adc	r25, r25
 33a:	0a 94       	dec	r0
 33c:	e2 f7       	brpl	.-8      	; 0x336 <DIO_SETpinVal+0x86>
 33e:	84 2b       	or	r24, r20
 340:	8c 93       	st	X, r24
 342:	bb c0       	rjmp	.+374    	; 0x4ba <DIO_SETpinVal+0x20a>
			case DIO_PORTB: SET_BIT(PORTB,u8_PIN);break;
 344:	a8 e3       	ldi	r26, 0x38	; 56
 346:	b0 e0       	ldi	r27, 0x00	; 0
 348:	e8 e3       	ldi	r30, 0x38	; 56
 34a:	f0 e0       	ldi	r31, 0x00	; 0
 34c:	80 81       	ld	r24, Z
 34e:	48 2f       	mov	r20, r24
 350:	8b 81       	ldd	r24, Y+3	; 0x03
 352:	28 2f       	mov	r18, r24
 354:	30 e0       	ldi	r19, 0x00	; 0
 356:	81 e0       	ldi	r24, 0x01	; 1
 358:	90 e0       	ldi	r25, 0x00	; 0
 35a:	02 2e       	mov	r0, r18
 35c:	02 c0       	rjmp	.+4      	; 0x362 <DIO_SETpinVal+0xb2>
 35e:	88 0f       	add	r24, r24
 360:	99 1f       	adc	r25, r25
 362:	0a 94       	dec	r0
 364:	e2 f7       	brpl	.-8      	; 0x35e <DIO_SETpinVal+0xae>
 366:	84 2b       	or	r24, r20
 368:	8c 93       	st	X, r24
 36a:	a7 c0       	rjmp	.+334    	; 0x4ba <DIO_SETpinVal+0x20a>
			case DIO_PORTC: SET_BIT(PORTC,u8_PIN);break;
 36c:	a5 e3       	ldi	r26, 0x35	; 53
 36e:	b0 e0       	ldi	r27, 0x00	; 0
 370:	e5 e3       	ldi	r30, 0x35	; 53
 372:	f0 e0       	ldi	r31, 0x00	; 0
 374:	80 81       	ld	r24, Z
 376:	48 2f       	mov	r20, r24
 378:	8b 81       	ldd	r24, Y+3	; 0x03
 37a:	28 2f       	mov	r18, r24
 37c:	30 e0       	ldi	r19, 0x00	; 0
 37e:	81 e0       	ldi	r24, 0x01	; 1
 380:	90 e0       	ldi	r25, 0x00	; 0
 382:	02 2e       	mov	r0, r18
 384:	02 c0       	rjmp	.+4      	; 0x38a <DIO_SETpinVal+0xda>
 386:	88 0f       	add	r24, r24
 388:	99 1f       	adc	r25, r25
 38a:	0a 94       	dec	r0
 38c:	e2 f7       	brpl	.-8      	; 0x386 <DIO_SETpinVal+0xd6>
 38e:	84 2b       	or	r24, r20
 390:	8c 93       	st	X, r24
 392:	93 c0       	rjmp	.+294    	; 0x4ba <DIO_SETpinVal+0x20a>
			case DIO_PORTD: SET_BIT(PORTD,u8_PIN);break;
 394:	a2 e3       	ldi	r26, 0x32	; 50
 396:	b0 e0       	ldi	r27, 0x00	; 0
 398:	e2 e3       	ldi	r30, 0x32	; 50
 39a:	f0 e0       	ldi	r31, 0x00	; 0
 39c:	80 81       	ld	r24, Z
 39e:	48 2f       	mov	r20, r24
 3a0:	8b 81       	ldd	r24, Y+3	; 0x03
 3a2:	28 2f       	mov	r18, r24
 3a4:	30 e0       	ldi	r19, 0x00	; 0
 3a6:	81 e0       	ldi	r24, 0x01	; 1
 3a8:	90 e0       	ldi	r25, 0x00	; 0
 3aa:	02 2e       	mov	r0, r18
 3ac:	02 c0       	rjmp	.+4      	; 0x3b2 <DIO_SETpinVal+0x102>
 3ae:	88 0f       	add	r24, r24
 3b0:	99 1f       	adc	r25, r25
 3b2:	0a 94       	dec	r0
 3b4:	e2 f7       	brpl	.-8      	; 0x3ae <DIO_SETpinVal+0xfe>
 3b6:	84 2b       	or	r24, r20
 3b8:	8c 93       	st	X, r24
 3ba:	7f c0       	rjmp	.+254    	; 0x4ba <DIO_SETpinVal+0x20a>
			default:Local_u8Error=NOK;break;
 3bc:	19 82       	std	Y+1, r1	; 0x01
 3be:	7d c0       	rjmp	.+250    	; 0x4ba <DIO_SETpinVal+0x20a>
			}
		}
		/*If the chosen value is low*/
		else if(u8_VAL==DIO_LOW)
 3c0:	8c 81       	ldd	r24, Y+4	; 0x04
 3c2:	88 23       	and	r24, r24
 3c4:	09 f0       	breq	.+2      	; 0x3c8 <DIO_SETpinVal+0x118>
 3c6:	76 c0       	rjmp	.+236    	; 0x4b4 <DIO_SETpinVal+0x204>
		{
			/*Choose which port*/
			switch(u8_PORT)
 3c8:	8a 81       	ldd	r24, Y+2	; 0x02
 3ca:	28 2f       	mov	r18, r24
 3cc:	30 e0       	ldi	r19, 0x00	; 0
 3ce:	3e 83       	std	Y+6, r19	; 0x06
 3d0:	2d 83       	std	Y+5, r18	; 0x05
 3d2:	8d 81       	ldd	r24, Y+5	; 0x05
 3d4:	9e 81       	ldd	r25, Y+6	; 0x06
 3d6:	81 30       	cpi	r24, 0x01	; 1
 3d8:	91 05       	cpc	r25, r1
 3da:	59 f1       	breq	.+86     	; 0x432 <DIO_SETpinVal+0x182>
 3dc:	2d 81       	ldd	r18, Y+5	; 0x05
 3de:	3e 81       	ldd	r19, Y+6	; 0x06
 3e0:	22 30       	cpi	r18, 0x02	; 2
 3e2:	31 05       	cpc	r19, r1
 3e4:	2c f4       	brge	.+10     	; 0x3f0 <DIO_SETpinVal+0x140>
 3e6:	8d 81       	ldd	r24, Y+5	; 0x05
 3e8:	9e 81       	ldd	r25, Y+6	; 0x06
 3ea:	00 97       	sbiw	r24, 0x00	; 0
 3ec:	69 f0       	breq	.+26     	; 0x408 <DIO_SETpinVal+0x158>
 3ee:	60 c0       	rjmp	.+192    	; 0x4b0 <DIO_SETpinVal+0x200>
 3f0:	2d 81       	ldd	r18, Y+5	; 0x05
 3f2:	3e 81       	ldd	r19, Y+6	; 0x06
 3f4:	22 30       	cpi	r18, 0x02	; 2
 3f6:	31 05       	cpc	r19, r1
 3f8:	89 f1       	breq	.+98     	; 0x45c <DIO_SETpinVal+0x1ac>
 3fa:	8d 81       	ldd	r24, Y+5	; 0x05
 3fc:	9e 81       	ldd	r25, Y+6	; 0x06
 3fe:	83 30       	cpi	r24, 0x03	; 3
 400:	91 05       	cpc	r25, r1
 402:	09 f4       	brne	.+2      	; 0x406 <DIO_SETpinVal+0x156>
 404:	40 c0       	rjmp	.+128    	; 0x486 <DIO_SETpinVal+0x1d6>
 406:	54 c0       	rjmp	.+168    	; 0x4b0 <DIO_SETpinVal+0x200>
			{
			case DIO_PORTA: CLR_BIT(PORTA,u8_PIN);break;
 408:	ab e3       	ldi	r26, 0x3B	; 59
 40a:	b0 e0       	ldi	r27, 0x00	; 0
 40c:	eb e3       	ldi	r30, 0x3B	; 59
 40e:	f0 e0       	ldi	r31, 0x00	; 0
 410:	80 81       	ld	r24, Z
 412:	48 2f       	mov	r20, r24
 414:	8b 81       	ldd	r24, Y+3	; 0x03
 416:	28 2f       	mov	r18, r24
 418:	30 e0       	ldi	r19, 0x00	; 0
 41a:	81 e0       	ldi	r24, 0x01	; 1
 41c:	90 e0       	ldi	r25, 0x00	; 0
 41e:	02 2e       	mov	r0, r18
 420:	02 c0       	rjmp	.+4      	; 0x426 <DIO_SETpinVal+0x176>
 422:	88 0f       	add	r24, r24
 424:	99 1f       	adc	r25, r25
 426:	0a 94       	dec	r0
 428:	e2 f7       	brpl	.-8      	; 0x422 <DIO_SETpinVal+0x172>
 42a:	80 95       	com	r24
 42c:	84 23       	and	r24, r20
 42e:	8c 93       	st	X, r24
 430:	44 c0       	rjmp	.+136    	; 0x4ba <DIO_SETpinVal+0x20a>
			case DIO_PORTB: CLR_BIT(PORTB,u8_PIN);break;
 432:	a8 e3       	ldi	r26, 0x38	; 56
 434:	b0 e0       	ldi	r27, 0x00	; 0
 436:	e8 e3       	ldi	r30, 0x38	; 56
 438:	f0 e0       	ldi	r31, 0x00	; 0
 43a:	80 81       	ld	r24, Z
 43c:	48 2f       	mov	r20, r24
 43e:	8b 81       	ldd	r24, Y+3	; 0x03
 440:	28 2f       	mov	r18, r24
 442:	30 e0       	ldi	r19, 0x00	; 0
 444:	81 e0       	ldi	r24, 0x01	; 1
 446:	90 e0       	ldi	r25, 0x00	; 0
 448:	02 2e       	mov	r0, r18
 44a:	02 c0       	rjmp	.+4      	; 0x450 <DIO_SETpinVal+0x1a0>
 44c:	88 0f       	add	r24, r24
 44e:	99 1f       	adc	r25, r25
 450:	0a 94       	dec	r0
 452:	e2 f7       	brpl	.-8      	; 0x44c <DIO_SETpinVal+0x19c>
 454:	80 95       	com	r24
 456:	84 23       	and	r24, r20
 458:	8c 93       	st	X, r24
 45a:	2f c0       	rjmp	.+94     	; 0x4ba <DIO_SETpinVal+0x20a>
			case DIO_PORTC: CLR_BIT(PORTC,u8_PIN);break;
 45c:	a5 e3       	ldi	r26, 0x35	; 53
 45e:	b0 e0       	ldi	r27, 0x00	; 0
 460:	e5 e3       	ldi	r30, 0x35	; 53
 462:	f0 e0       	ldi	r31, 0x00	; 0
 464:	80 81       	ld	r24, Z
 466:	48 2f       	mov	r20, r24
 468:	8b 81       	ldd	r24, Y+3	; 0x03
 46a:	28 2f       	mov	r18, r24
 46c:	30 e0       	ldi	r19, 0x00	; 0
 46e:	81 e0       	ldi	r24, 0x01	; 1
 470:	90 e0       	ldi	r25, 0x00	; 0
 472:	02 2e       	mov	r0, r18
 474:	02 c0       	rjmp	.+4      	; 0x47a <DIO_SETpinVal+0x1ca>
 476:	88 0f       	add	r24, r24
 478:	99 1f       	adc	r25, r25
 47a:	0a 94       	dec	r0
 47c:	e2 f7       	brpl	.-8      	; 0x476 <DIO_SETpinVal+0x1c6>
 47e:	80 95       	com	r24
 480:	84 23       	and	r24, r20
 482:	8c 93       	st	X, r24
 484:	1a c0       	rjmp	.+52     	; 0x4ba <DIO_SETpinVal+0x20a>
			case DIO_PORTD: CLR_BIT(PORTD,u8_PIN);break;
 486:	a2 e3       	ldi	r26, 0x32	; 50
 488:	b0 e0       	ldi	r27, 0x00	; 0
 48a:	e2 e3       	ldi	r30, 0x32	; 50
 48c:	f0 e0       	ldi	r31, 0x00	; 0
 48e:	80 81       	ld	r24, Z
 490:	48 2f       	mov	r20, r24
 492:	8b 81       	ldd	r24, Y+3	; 0x03
 494:	28 2f       	mov	r18, r24
 496:	30 e0       	ldi	r19, 0x00	; 0
 498:	81 e0       	ldi	r24, 0x01	; 1
 49a:	90 e0       	ldi	r25, 0x00	; 0
 49c:	02 2e       	mov	r0, r18
 49e:	02 c0       	rjmp	.+4      	; 0x4a4 <DIO_SETpinVal+0x1f4>
 4a0:	88 0f       	add	r24, r24
 4a2:	99 1f       	adc	r25, r25
 4a4:	0a 94       	dec	r0
 4a6:	e2 f7       	brpl	.-8      	; 0x4a0 <DIO_SETpinVal+0x1f0>
 4a8:	80 95       	com	r24
 4aa:	84 23       	and	r24, r20
 4ac:	8c 93       	st	X, r24
 4ae:	05 c0       	rjmp	.+10     	; 0x4ba <DIO_SETpinVal+0x20a>
			default:Local_u8Error=NOK;break;
 4b0:	19 82       	std	Y+1, r1	; 0x01
 4b2:	03 c0       	rjmp	.+6      	; 0x4ba <DIO_SETpinVal+0x20a>
			}
		}
		else
		{
			Local_u8Error=NOK;
 4b4:	19 82       	std	Y+1, r1	; 0x01
 4b6:	01 c0       	rjmp	.+2      	; 0x4ba <DIO_SETpinVal+0x20a>
		}
	}
	else
	{
		Local_u8Error=NOK;
 4b8:	19 82       	std	Y+1, r1	; 0x01
	}
	return Local_u8Error;
 4ba:	89 81       	ldd	r24, Y+1	; 0x01
}
 4bc:	28 96       	adiw	r28, 0x08	; 8
 4be:	0f b6       	in	r0, 0x3f	; 63
 4c0:	f8 94       	cli
 4c2:	de bf       	out	0x3e, r29	; 62
 4c4:	0f be       	out	0x3f, r0	; 63
 4c6:	cd bf       	out	0x3d, r28	; 61
 4c8:	cf 91       	pop	r28
 4ca:	df 91       	pop	r29
 4cc:	08 95       	ret

000004ce <DIO_GETpinVal>:


uint8_t DIO_GETpinVal(uint8_t u8_PORT,uint8_t u8_PIN, uint8_t *u8p_RetVal){
 4ce:	df 93       	push	r29
 4d0:	cf 93       	push	r28
 4d2:	cd b7       	in	r28, 0x3d	; 61
 4d4:	de b7       	in	r29, 0x3e	; 62
 4d6:	27 97       	sbiw	r28, 0x07	; 7
 4d8:	0f b6       	in	r0, 0x3f	; 63
 4da:	f8 94       	cli
 4dc:	de bf       	out	0x3e, r29	; 62
 4de:	0f be       	out	0x3f, r0	; 63
 4e0:	cd bf       	out	0x3d, r28	; 61
 4e2:	8a 83       	std	Y+2, r24	; 0x02
 4e4:	6b 83       	std	Y+3, r22	; 0x03
 4e6:	5d 83       	std	Y+5, r21	; 0x05
 4e8:	4c 83       	std	Y+4, r20	; 0x04
	uint8_t Local_u8Error=OK;//variable using in Error check
 4ea:	81 e0       	ldi	r24, 0x01	; 1
 4ec:	89 83       	std	Y+1, r24	; 0x01
	if(u8_PIN<=DIO_PIN7)
 4ee:	8b 81       	ldd	r24, Y+3	; 0x03
 4f0:	88 30       	cpi	r24, 0x08	; 8
 4f2:	08 f0       	brcs	.+2      	; 0x4f6 <DIO_GETpinVal+0x28>
 4f4:	73 c0       	rjmp	.+230    	; 0x5dc <DIO_GETpinVal+0x10e>
	{
		switch(u8_PORT)
 4f6:	8a 81       	ldd	r24, Y+2	; 0x02
 4f8:	28 2f       	mov	r18, r24
 4fa:	30 e0       	ldi	r19, 0x00	; 0
 4fc:	3f 83       	std	Y+7, r19	; 0x07
 4fe:	2e 83       	std	Y+6, r18	; 0x06
 500:	4e 81       	ldd	r20, Y+6	; 0x06
 502:	5f 81       	ldd	r21, Y+7	; 0x07
 504:	41 30       	cpi	r20, 0x01	; 1
 506:	51 05       	cpc	r21, r1
 508:	59 f1       	breq	.+86     	; 0x560 <DIO_GETpinVal+0x92>
 50a:	8e 81       	ldd	r24, Y+6	; 0x06
 50c:	9f 81       	ldd	r25, Y+7	; 0x07
 50e:	82 30       	cpi	r24, 0x02	; 2
 510:	91 05       	cpc	r25, r1
 512:	34 f4       	brge	.+12     	; 0x520 <DIO_GETpinVal+0x52>
 514:	2e 81       	ldd	r18, Y+6	; 0x06
 516:	3f 81       	ldd	r19, Y+7	; 0x07
 518:	21 15       	cp	r18, r1
 51a:	31 05       	cpc	r19, r1
 51c:	69 f0       	breq	.+26     	; 0x538 <DIO_GETpinVal+0x6a>
 51e:	5c c0       	rjmp	.+184    	; 0x5d8 <DIO_GETpinVal+0x10a>
 520:	4e 81       	ldd	r20, Y+6	; 0x06
 522:	5f 81       	ldd	r21, Y+7	; 0x07
 524:	42 30       	cpi	r20, 0x02	; 2
 526:	51 05       	cpc	r21, r1
 528:	79 f1       	breq	.+94     	; 0x588 <DIO_GETpinVal+0xba>
 52a:	8e 81       	ldd	r24, Y+6	; 0x06
 52c:	9f 81       	ldd	r25, Y+7	; 0x07
 52e:	83 30       	cpi	r24, 0x03	; 3
 530:	91 05       	cpc	r25, r1
 532:	09 f4       	brne	.+2      	; 0x536 <DIO_GETpinVal+0x68>
 534:	3d c0       	rjmp	.+122    	; 0x5b0 <DIO_GETpinVal+0xe2>
 536:	50 c0       	rjmp	.+160    	; 0x5d8 <DIO_GETpinVal+0x10a>
		{
		/*Choose which port*/
		case DIO_PORTA: *u8p_RetVal=GET_BIT(PINA,u8_PIN);break;
 538:	e9 e3       	ldi	r30, 0x39	; 57
 53a:	f0 e0       	ldi	r31, 0x00	; 0
 53c:	80 81       	ld	r24, Z
 53e:	28 2f       	mov	r18, r24
 540:	30 e0       	ldi	r19, 0x00	; 0
 542:	8b 81       	ldd	r24, Y+3	; 0x03
 544:	88 2f       	mov	r24, r24
 546:	90 e0       	ldi	r25, 0x00	; 0
 548:	a9 01       	movw	r20, r18
 54a:	02 c0       	rjmp	.+4      	; 0x550 <DIO_GETpinVal+0x82>
 54c:	55 95       	asr	r21
 54e:	47 95       	ror	r20
 550:	8a 95       	dec	r24
 552:	e2 f7       	brpl	.-8      	; 0x54c <DIO_GETpinVal+0x7e>
 554:	ca 01       	movw	r24, r20
 556:	81 70       	andi	r24, 0x01	; 1
 558:	ec 81       	ldd	r30, Y+4	; 0x04
 55a:	fd 81       	ldd	r31, Y+5	; 0x05
 55c:	80 83       	st	Z, r24
 55e:	3f c0       	rjmp	.+126    	; 0x5de <DIO_GETpinVal+0x110>
		case DIO_PORTB: *u8p_RetVal=GET_BIT(PINB,u8_PIN);break;
 560:	e6 e3       	ldi	r30, 0x36	; 54
 562:	f0 e0       	ldi	r31, 0x00	; 0
 564:	80 81       	ld	r24, Z
 566:	28 2f       	mov	r18, r24
 568:	30 e0       	ldi	r19, 0x00	; 0
 56a:	8b 81       	ldd	r24, Y+3	; 0x03
 56c:	88 2f       	mov	r24, r24
 56e:	90 e0       	ldi	r25, 0x00	; 0
 570:	a9 01       	movw	r20, r18
 572:	02 c0       	rjmp	.+4      	; 0x578 <DIO_GETpinVal+0xaa>
 574:	55 95       	asr	r21
 576:	47 95       	ror	r20
 578:	8a 95       	dec	r24
 57a:	e2 f7       	brpl	.-8      	; 0x574 <DIO_GETpinVal+0xa6>
 57c:	ca 01       	movw	r24, r20
 57e:	81 70       	andi	r24, 0x01	; 1
 580:	ec 81       	ldd	r30, Y+4	; 0x04
 582:	fd 81       	ldd	r31, Y+5	; 0x05
 584:	80 83       	st	Z, r24
 586:	2b c0       	rjmp	.+86     	; 0x5de <DIO_GETpinVal+0x110>
		case DIO_PORTC: *u8p_RetVal=GET_BIT(PINC,u8_PIN);break;
 588:	e3 e3       	ldi	r30, 0x33	; 51
 58a:	f0 e0       	ldi	r31, 0x00	; 0
 58c:	80 81       	ld	r24, Z
 58e:	28 2f       	mov	r18, r24
 590:	30 e0       	ldi	r19, 0x00	; 0
 592:	8b 81       	ldd	r24, Y+3	; 0x03
 594:	88 2f       	mov	r24, r24
 596:	90 e0       	ldi	r25, 0x00	; 0
 598:	a9 01       	movw	r20, r18
 59a:	02 c0       	rjmp	.+4      	; 0x5a0 <DIO_GETpinVal+0xd2>
 59c:	55 95       	asr	r21
 59e:	47 95       	ror	r20
 5a0:	8a 95       	dec	r24
 5a2:	e2 f7       	brpl	.-8      	; 0x59c <DIO_GETpinVal+0xce>
 5a4:	ca 01       	movw	r24, r20
 5a6:	81 70       	andi	r24, 0x01	; 1
 5a8:	ec 81       	ldd	r30, Y+4	; 0x04
 5aa:	fd 81       	ldd	r31, Y+5	; 0x05
 5ac:	80 83       	st	Z, r24
 5ae:	17 c0       	rjmp	.+46     	; 0x5de <DIO_GETpinVal+0x110>
		case DIO_PORTD: *u8p_RetVal=GET_BIT(PIND,u8_PIN);break;
 5b0:	e0 e3       	ldi	r30, 0x30	; 48
 5b2:	f0 e0       	ldi	r31, 0x00	; 0
 5b4:	80 81       	ld	r24, Z
 5b6:	28 2f       	mov	r18, r24
 5b8:	30 e0       	ldi	r19, 0x00	; 0
 5ba:	8b 81       	ldd	r24, Y+3	; 0x03
 5bc:	88 2f       	mov	r24, r24
 5be:	90 e0       	ldi	r25, 0x00	; 0
 5c0:	a9 01       	movw	r20, r18
 5c2:	02 c0       	rjmp	.+4      	; 0x5c8 <DIO_GETpinVal+0xfa>
 5c4:	55 95       	asr	r21
 5c6:	47 95       	ror	r20
 5c8:	8a 95       	dec	r24
 5ca:	e2 f7       	brpl	.-8      	; 0x5c4 <DIO_GETpinVal+0xf6>
 5cc:	ca 01       	movw	r24, r20
 5ce:	81 70       	andi	r24, 0x01	; 1
 5d0:	ec 81       	ldd	r30, Y+4	; 0x04
 5d2:	fd 81       	ldd	r31, Y+5	; 0x05
 5d4:	80 83       	st	Z, r24
 5d6:	03 c0       	rjmp	.+6      	; 0x5de <DIO_GETpinVal+0x110>
		default: Local_u8Error=NOK;break;
 5d8:	19 82       	std	Y+1, r1	; 0x01
 5da:	01 c0       	rjmp	.+2      	; 0x5de <DIO_GETpinVal+0x110>
		}
	}
	else
	{
		Local_u8Error=NOK;
 5dc:	19 82       	std	Y+1, r1	; 0x01
	}
	return Local_u8Error;
 5de:	89 81       	ldd	r24, Y+1	; 0x01
}
 5e0:	27 96       	adiw	r28, 0x07	; 7
 5e2:	0f b6       	in	r0, 0x3f	; 63
 5e4:	f8 94       	cli
 5e6:	de bf       	out	0x3e, r29	; 62
 5e8:	0f be       	out	0x3f, r0	; 63
 5ea:	cd bf       	out	0x3d, r28	; 61
 5ec:	cf 91       	pop	r28
 5ee:	df 91       	pop	r29
 5f0:	08 95       	ret

000005f2 <GlobalInerruptEnable>:
#include "Interrupt_interface.h"
#include "Interrupt_private.h"
#include "Interrupt_config.h"

void GlobalInerruptEnable(void)
{
 5f2:	df 93       	push	r29
 5f4:	cf 93       	push	r28
 5f6:	cd b7       	in	r28, 0x3d	; 61
 5f8:	de b7       	in	r29, 0x3e	; 62
	SET_BIT(SREG,7);
 5fa:	af e5       	ldi	r26, 0x5F	; 95
 5fc:	b0 e0       	ldi	r27, 0x00	; 0
 5fe:	ef e5       	ldi	r30, 0x5F	; 95
 600:	f0 e0       	ldi	r31, 0x00	; 0
 602:	80 81       	ld	r24, Z
 604:	80 68       	ori	r24, 0x80	; 128
 606:	8c 93       	st	X, r24
}
 608:	cf 91       	pop	r28
 60a:	df 91       	pop	r29
 60c:	08 95       	ret

0000060e <KPD_init>:
#include "KEYPAD_private.h"
#include "KEYPAD_interface.h"
//#include<util/delay.h>

void KPD_init(void)
{
 60e:	df 93       	push	r29
 610:	cf 93       	push	r28
 612:	cd b7       	in	r28, 0x3d	; 61
 614:	de b7       	in	r29, 0x3e	; 62
	/*Set columns & Rows Direction*/
	DIO_SETpinDir(KPD_PORT,KPD_COLUMN0_PIN,DIO_OUTPUT);
 616:	82 e0       	ldi	r24, 0x02	; 2
 618:	65 e0       	ldi	r22, 0x05	; 5
 61a:	41 e0       	ldi	r20, 0x01	; 1
 61c:	0e 94 49 00 	call	0x92	; 0x92 <DIO_SETpinDir>
	DIO_SETpinDir(KPD_PORT,KPD_COLUMN1_PIN,DIO_OUTPUT);
 620:	82 e0       	ldi	r24, 0x02	; 2
 622:	66 e0       	ldi	r22, 0x06	; 6
 624:	41 e0       	ldi	r20, 0x01	; 1
 626:	0e 94 49 00 	call	0x92	; 0x92 <DIO_SETpinDir>
	DIO_SETpinDir(KPD_PORT,KPD_COLUMN2_PIN,DIO_OUTPUT);
 62a:	82 e0       	ldi	r24, 0x02	; 2
 62c:	67 e0       	ldi	r22, 0x07	; 7
 62e:	41 e0       	ldi	r20, 0x01	; 1
 630:	0e 94 49 00 	call	0x92	; 0x92 <DIO_SETpinDir>
	//DIO_SETpinDir(KPD_PORT,KPD_COLUMN3_PIN,DIO_OUTPUT);
	DIO_SETpinDir(KPD_PORT,KPD_ROW0_PIN,DIO_INPUT);
 634:	82 e0       	ldi	r24, 0x02	; 2
 636:	62 e0       	ldi	r22, 0x02	; 2
 638:	40 e0       	ldi	r20, 0x00	; 0
 63a:	0e 94 49 00 	call	0x92	; 0x92 <DIO_SETpinDir>
	DIO_SETpinDir(KPD_PORT,KPD_ROW1_PIN,DIO_INPUT);
 63e:	82 e0       	ldi	r24, 0x02	; 2
 640:	63 e0       	ldi	r22, 0x03	; 3
 642:	40 e0       	ldi	r20, 0x00	; 0
 644:	0e 94 49 00 	call	0x92	; 0x92 <DIO_SETpinDir>
	DIO_SETpinDir(KPD_PORT,KPD_ROW2_PIN,DIO_INPUT);
 648:	82 e0       	ldi	r24, 0x02	; 2
 64a:	64 e0       	ldi	r22, 0x04	; 4
 64c:	40 e0       	ldi	r20, 0x00	; 0
 64e:	0e 94 49 00 	call	0x92	; 0x92 <DIO_SETpinDir>
	//DIO_SETpinDir(KPD_PORT,KPD_ROW3_PIN,DIO_INPUT);

	/*Set Rows to work in pull up mode*/
	DIO_SETpinVal(KPD_PORT,KPD_ROW0_PIN,DIO_HIGH);
 652:	82 e0       	ldi	r24, 0x02	; 2
 654:	62 e0       	ldi	r22, 0x02	; 2
 656:	41 e0       	ldi	r20, 0x01	; 1
 658:	0e 94 58 01 	call	0x2b0	; 0x2b0 <DIO_SETpinVal>
	DIO_SETpinVal(KPD_PORT,KPD_ROW1_PIN,DIO_HIGH);
 65c:	82 e0       	ldi	r24, 0x02	; 2
 65e:	63 e0       	ldi	r22, 0x03	; 3
 660:	41 e0       	ldi	r20, 0x01	; 1
 662:	0e 94 58 01 	call	0x2b0	; 0x2b0 <DIO_SETpinVal>
	DIO_SETpinVal(KPD_PORT,KPD_ROW2_PIN,DIO_HIGH);
 666:	82 e0       	ldi	r24, 0x02	; 2
 668:	64 e0       	ldi	r22, 0x04	; 4
 66a:	41 e0       	ldi	r20, 0x01	; 1
 66c:	0e 94 58 01 	call	0x2b0	; 0x2b0 <DIO_SETpinVal>
	//DIO_SETpinVal(KPD_PORT,KPD_ROW3_PIN,DIO_HIGH);

	/*Deactivate columns by setting them high*/
	DIO_SETpinVal(KPD_PORT,KPD_COLUMN0_PIN,DIO_HIGH);
 670:	82 e0       	ldi	r24, 0x02	; 2
 672:	65 e0       	ldi	r22, 0x05	; 5
 674:	41 e0       	ldi	r20, 0x01	; 1
 676:	0e 94 58 01 	call	0x2b0	; 0x2b0 <DIO_SETpinVal>
	DIO_SETpinVal(KPD_PORT,KPD_COLUMN1_PIN,DIO_HIGH);
 67a:	82 e0       	ldi	r24, 0x02	; 2
 67c:	66 e0       	ldi	r22, 0x06	; 6
 67e:	41 e0       	ldi	r20, 0x01	; 1
 680:	0e 94 58 01 	call	0x2b0	; 0x2b0 <DIO_SETpinVal>
	DIO_SETpinVal(KPD_PORT,KPD_COLUMN2_PIN,DIO_HIGH);
 684:	82 e0       	ldi	r24, 0x02	; 2
 686:	67 e0       	ldi	r22, 0x07	; 7
 688:	41 e0       	ldi	r20, 0x01	; 1
 68a:	0e 94 58 01 	call	0x2b0	; 0x2b0 <DIO_SETpinVal>
	//DIO_SETpinVal(KPD_PORT,KPD_COLUMN3_PIN,DIO_HIGH);
}
 68e:	cf 91       	pop	r28
 690:	df 91       	pop	r29
 692:	08 95       	ret

00000694 <KPD_u8GetPressedKey>:

uint8_t KPD_u8GetPressedKey(void)
{
 694:	df 93       	push	r29
 696:	cf 93       	push	r28
 698:	00 d0       	rcall	.+0      	; 0x69a <KPD_u8GetPressedKey+0x6>
 69a:	00 d0       	rcall	.+0      	; 0x69c <KPD_u8GetPressedKey+0x8>
 69c:	0f 92       	push	r0
 69e:	cd b7       	in	r28, 0x3d	; 61
 6a0:	de b7       	in	r29, 0x3e	; 62
	uint8_t local_u8Pressed=KPD_NO_Pressed;
 6a2:	8f ef       	ldi	r24, 0xFF	; 255
 6a4:	8b 83       	std	Y+3, r24	; 0x03
	static uint8_t KPD_Arr[Row_num][Column_num]=KPD_Arr_Val;
	static uint8_t KPD_ROWS[Row_num]={KPD_ROW0_PIN,KPD_ROW1_PIN,KPD_ROW2_PIN};
	static uint8_t KPD_COLUMNS[Column_num]={KPD_COLUMN0_PIN,KPD_COLUMN1_PIN,KPD_COLUMN2_PIN};
	uint8_t KPD_ROWS_Index,KPD_COLUMNS_Index,ROW_PIN_State;

	for(KPD_COLUMNS_Index=0;KPD_COLUMNS_Index<Column_num;KPD_COLUMNS_Index++)
 6a6:	19 82       	std	Y+1, r1	; 0x01
 6a8:	56 c0       	rjmp	.+172    	; 0x756 <KPD_u8GetPressedKey+0xc2>
	{
		/*Activate Columns*/
		DIO_SETpinVal(KPD_PORT,KPD_COLUMNS[KPD_COLUMNS_Index],DIO_LOW);
 6aa:	89 81       	ldd	r24, Y+1	; 0x01
 6ac:	88 2f       	mov	r24, r24
 6ae:	90 e0       	ldi	r25, 0x00	; 0
 6b0:	fc 01       	movw	r30, r24
 6b2:	e0 5a       	subi	r30, 0xA0	; 160
 6b4:	ff 4f       	sbci	r31, 0xFF	; 255
 6b6:	90 81       	ld	r25, Z
 6b8:	82 e0       	ldi	r24, 0x02	; 2
 6ba:	69 2f       	mov	r22, r25
 6bc:	40 e0       	ldi	r20, 0x00	; 0
 6be:	0e 94 58 01 	call	0x2b0	; 0x2b0 <DIO_SETpinVal>
		for(KPD_ROWS_Index=0;KPD_ROWS_Index<Row_num;KPD_ROWS_Index++)
 6c2:	1a 82       	std	Y+2, r1	; 0x02
 6c4:	36 c0       	rjmp	.+108    	; 0x732 <KPD_u8GetPressedKey+0x9e>
		{
			DIO_GETpinVal(KPD_PORT,KPD_ROWS[KPD_ROWS_Index],&ROW_PIN_State);
 6c6:	8a 81       	ldd	r24, Y+2	; 0x02
 6c8:	88 2f       	mov	r24, r24
 6ca:	90 e0       	ldi	r25, 0x00	; 0
 6cc:	fc 01       	movw	r30, r24
 6ce:	ed 59       	subi	r30, 0x9D	; 157
 6d0:	ff 4f       	sbci	r31, 0xFF	; 255
 6d2:	90 81       	ld	r25, Z
 6d4:	9e 01       	movw	r18, r28
 6d6:	2c 5f       	subi	r18, 0xFC	; 252
 6d8:	3f 4f       	sbci	r19, 0xFF	; 255
 6da:	82 e0       	ldi	r24, 0x02	; 2
 6dc:	69 2f       	mov	r22, r25
 6de:	a9 01       	movw	r20, r18
 6e0:	0e 94 67 02 	call	0x4ce	; 0x4ce <DIO_GETpinVal>
			if(DIO_LOW==ROW_PIN_State)
 6e4:	8c 81       	ldd	r24, Y+4	; 0x04
 6e6:	88 23       	and	r24, r24
 6e8:	09 f5       	brne	.+66     	; 0x72c <KPD_u8GetPressedKey+0x98>
			{
				local_u8Pressed=KPD_Arr[KPD_ROWS_Index][KPD_COLUMNS_Index];
 6ea:	8a 81       	ldd	r24, Y+2	; 0x02
 6ec:	28 2f       	mov	r18, r24
 6ee:	30 e0       	ldi	r19, 0x00	; 0
 6f0:	89 81       	ldd	r24, Y+1	; 0x01
 6f2:	48 2f       	mov	r20, r24
 6f4:	50 e0       	ldi	r21, 0x00	; 0
 6f6:	c9 01       	movw	r24, r18
 6f8:	88 0f       	add	r24, r24
 6fa:	99 1f       	adc	r25, r25
 6fc:	82 0f       	add	r24, r18
 6fe:	93 1f       	adc	r25, r19
 700:	84 0f       	add	r24, r20
 702:	95 1f       	adc	r25, r21
 704:	fc 01       	movw	r30, r24
 706:	ea 59       	subi	r30, 0x9A	; 154
 708:	ff 4f       	sbci	r31, 0xFF	; 255
 70a:	80 81       	ld	r24, Z
 70c:	8b 83       	std	Y+3, r24	; 0x03

				DIO_SETpinVal(KPD_PORT,KPD_COLUMNS[KPD_COLUMNS_Index],DIO_HIGH);
 70e:	89 81       	ldd	r24, Y+1	; 0x01
 710:	88 2f       	mov	r24, r24
 712:	90 e0       	ldi	r25, 0x00	; 0
 714:	fc 01       	movw	r30, r24
 716:	e0 5a       	subi	r30, 0xA0	; 160
 718:	ff 4f       	sbci	r31, 0xFF	; 255
 71a:	90 81       	ld	r25, Z
 71c:	82 e0       	ldi	r24, 0x02	; 2
 71e:	69 2f       	mov	r22, r25
 720:	41 e0       	ldi	r20, 0x01	; 1
 722:	0e 94 58 01 	call	0x2b0	; 0x2b0 <DIO_SETpinVal>
				return local_u8Pressed;
 726:	8b 81       	ldd	r24, Y+3	; 0x03
 728:	8d 83       	std	Y+5, r24	; 0x05
 72a:	1b c0       	rjmp	.+54     	; 0x762 <KPD_u8GetPressedKey+0xce>

	for(KPD_COLUMNS_Index=0;KPD_COLUMNS_Index<Column_num;KPD_COLUMNS_Index++)
	{
		/*Activate Columns*/
		DIO_SETpinVal(KPD_PORT,KPD_COLUMNS[KPD_COLUMNS_Index],DIO_LOW);
		for(KPD_ROWS_Index=0;KPD_ROWS_Index<Row_num;KPD_ROWS_Index++)
 72c:	8a 81       	ldd	r24, Y+2	; 0x02
 72e:	8f 5f       	subi	r24, 0xFF	; 255
 730:	8a 83       	std	Y+2, r24	; 0x02
 732:	8a 81       	ldd	r24, Y+2	; 0x02
 734:	83 30       	cpi	r24, 0x03	; 3
 736:	38 f2       	brcs	.-114    	; 0x6c6 <KPD_u8GetPressedKey+0x32>
				DIO_SETpinVal(KPD_PORT,KPD_COLUMNS[KPD_COLUMNS_Index],DIO_HIGH);
				return local_u8Pressed;
			}
		}
		/*Deactivate current column*/
		DIO_SETpinVal(KPD_PORT,KPD_COLUMNS[KPD_COLUMNS_Index],DIO_HIGH);
 738:	89 81       	ldd	r24, Y+1	; 0x01
 73a:	88 2f       	mov	r24, r24
 73c:	90 e0       	ldi	r25, 0x00	; 0
 73e:	fc 01       	movw	r30, r24
 740:	e0 5a       	subi	r30, 0xA0	; 160
 742:	ff 4f       	sbci	r31, 0xFF	; 255
 744:	90 81       	ld	r25, Z
 746:	82 e0       	ldi	r24, 0x02	; 2
 748:	69 2f       	mov	r22, r25
 74a:	41 e0       	ldi	r20, 0x01	; 1
 74c:	0e 94 58 01 	call	0x2b0	; 0x2b0 <DIO_SETpinVal>
	static uint8_t KPD_Arr[Row_num][Column_num]=KPD_Arr_Val;
	static uint8_t KPD_ROWS[Row_num]={KPD_ROW0_PIN,KPD_ROW1_PIN,KPD_ROW2_PIN};
	static uint8_t KPD_COLUMNS[Column_num]={KPD_COLUMN0_PIN,KPD_COLUMN1_PIN,KPD_COLUMN2_PIN};
	uint8_t KPD_ROWS_Index,KPD_COLUMNS_Index,ROW_PIN_State;

	for(KPD_COLUMNS_Index=0;KPD_COLUMNS_Index<Column_num;KPD_COLUMNS_Index++)
 750:	89 81       	ldd	r24, Y+1	; 0x01
 752:	8f 5f       	subi	r24, 0xFF	; 255
 754:	89 83       	std	Y+1, r24	; 0x01
 756:	89 81       	ldd	r24, Y+1	; 0x01
 758:	83 30       	cpi	r24, 0x03	; 3
 75a:	08 f4       	brcc	.+2      	; 0x75e <KPD_u8GetPressedKey+0xca>
 75c:	a6 cf       	rjmp	.-180    	; 0x6aa <KPD_u8GetPressedKey+0x16>
		}
		/*Deactivate current column*/
		DIO_SETpinVal(KPD_PORT,KPD_COLUMNS[KPD_COLUMNS_Index],DIO_HIGH);
	}

	return local_u8Pressed;
 75e:	8b 81       	ldd	r24, Y+3	; 0x03
 760:	8d 83       	std	Y+5, r24	; 0x05
 762:	8d 81       	ldd	r24, Y+5	; 0x05
}
 764:	0f 90       	pop	r0
 766:	0f 90       	pop	r0
 768:	0f 90       	pop	r0
 76a:	0f 90       	pop	r0
 76c:	0f 90       	pop	r0
 76e:	cf 91       	pop	r28
 770:	df 91       	pop	r29
 772:	08 95       	ret

00000774 <LED_init>:
#include "STD_TYPES.h"
#include "BIT_MATH.h"
#include "DIO_interface.h"

void LED_init(uint8_t port , uint8_t Pin)
{
 774:	df 93       	push	r29
 776:	cf 93       	push	r28
 778:	00 d0       	rcall	.+0      	; 0x77a <LED_init+0x6>
 77a:	cd b7       	in	r28, 0x3d	; 61
 77c:	de b7       	in	r29, 0x3e	; 62
 77e:	89 83       	std	Y+1, r24	; 0x01
 780:	6a 83       	std	Y+2, r22	; 0x02
	DIO_SETpinDir(port,Pin,1);
 782:	89 81       	ldd	r24, Y+1	; 0x01
 784:	6a 81       	ldd	r22, Y+2	; 0x02
 786:	41 e0       	ldi	r20, 0x01	; 1
 788:	0e 94 49 00 	call	0x92	; 0x92 <DIO_SETpinDir>
}
 78c:	0f 90       	pop	r0
 78e:	0f 90       	pop	r0
 790:	cf 91       	pop	r28
 792:	df 91       	pop	r29
 794:	08 95       	ret

00000796 <LED_ON>:


void LED_ON(uint8_t port , uint8_t Pin)
{
 796:	df 93       	push	r29
 798:	cf 93       	push	r28
 79a:	00 d0       	rcall	.+0      	; 0x79c <LED_ON+0x6>
 79c:	cd b7       	in	r28, 0x3d	; 61
 79e:	de b7       	in	r29, 0x3e	; 62
 7a0:	89 83       	std	Y+1, r24	; 0x01
 7a2:	6a 83       	std	Y+2, r22	; 0x02
	DIO_SETpinVal(port,Pin,1);
 7a4:	89 81       	ldd	r24, Y+1	; 0x01
 7a6:	6a 81       	ldd	r22, Y+2	; 0x02
 7a8:	41 e0       	ldi	r20, 0x01	; 1
 7aa:	0e 94 58 01 	call	0x2b0	; 0x2b0 <DIO_SETpinVal>
}
 7ae:	0f 90       	pop	r0
 7b0:	0f 90       	pop	r0
 7b2:	cf 91       	pop	r28
 7b4:	df 91       	pop	r29
 7b6:	08 95       	ret

000007b8 <LED_OFF>:



void LED_OFF(uint8_t port , uint8_t Pin)
{
 7b8:	df 93       	push	r29
 7ba:	cf 93       	push	r28
 7bc:	00 d0       	rcall	.+0      	; 0x7be <LED_OFF+0x6>
 7be:	cd b7       	in	r28, 0x3d	; 61
 7c0:	de b7       	in	r29, 0x3e	; 62
 7c2:	89 83       	std	Y+1, r24	; 0x01
 7c4:	6a 83       	std	Y+2, r22	; 0x02
	DIO_SETpinVal(port,Pin,0);
 7c6:	89 81       	ldd	r24, Y+1	; 0x01
 7c8:	6a 81       	ldd	r22, Y+2	; 0x02
 7ca:	40 e0       	ldi	r20, 0x00	; 0
 7cc:	0e 94 58 01 	call	0x2b0	; 0x2b0 <DIO_SETpinVal>
}
 7d0:	0f 90       	pop	r0
 7d2:	0f 90       	pop	r0
 7d4:	cf 91       	pop	r28
 7d6:	df 91       	pop	r29
 7d8:	08 95       	ret

000007da <MOTOR_init>:
#include "MOTOR_CONFIG.h"



void MOTOR_init(uint8_t numMotor)// numMotor (initialize Direction pins only (PWM initializes enable pins inside them))
{
 7da:	df 93       	push	r29
 7dc:	cf 93       	push	r28
 7de:	0f 92       	push	r0
 7e0:	cd b7       	in	r28, 0x3d	; 61
 7e2:	de b7       	in	r29, 0x3e	; 62
 7e4:	89 83       	std	Y+1, r24	; 0x01
	PWM_vidInit();
 7e6:	0e 94 8f 04 	call	0x91e	; 0x91e <PWM_vidInit>
	if(MOTOR_1==numMotor)
 7ea:	89 81       	ldd	r24, Y+1	; 0x01
 7ec:	88 23       	and	r24, r24
 7ee:	59 f4       	brne	.+22     	; 0x806 <MOTOR_init+0x2c>
	{
		DIO_SETpinDir(MOTOR_PORT,MOTOR_DIR_1A,DIO_OUTPUT);
 7f0:	83 e0       	ldi	r24, 0x03	; 3
 7f2:	62 e0       	ldi	r22, 0x02	; 2
 7f4:	41 e0       	ldi	r20, 0x01	; 1
 7f6:	0e 94 49 00 	call	0x92	; 0x92 <DIO_SETpinDir>
		DIO_SETpinDir(MOTOR_PORT,MOTOR_DIR_1B,DIO_OUTPUT);
 7fa:	83 e0       	ldi	r24, 0x03	; 3
 7fc:	63 e0       	ldi	r22, 0x03	; 3
 7fe:	41 e0       	ldi	r20, 0x01	; 1
 800:	0e 94 49 00 	call	0x92	; 0x92 <DIO_SETpinDir>
 804:	0d c0       	rjmp	.+26     	; 0x820 <MOTOR_init+0x46>
	}
	else if(MOTOR_2==numMotor)
 806:	89 81       	ldd	r24, Y+1	; 0x01
 808:	81 30       	cpi	r24, 0x01	; 1
 80a:	51 f4       	brne	.+20     	; 0x820 <MOTOR_init+0x46>
	{
		DIO_SETpinDir(MOTOR_PORT,MOTOR_DIR_2A,DIO_OUTPUT);
 80c:	83 e0       	ldi	r24, 0x03	; 3
 80e:	66 e0       	ldi	r22, 0x06	; 6
 810:	41 e0       	ldi	r20, 0x01	; 1
 812:	0e 94 49 00 	call	0x92	; 0x92 <DIO_SETpinDir>
		DIO_SETpinDir(MOTOR_PORT,MOTOR_DIR_2B,DIO_OUTPUT);
 816:	83 e0       	ldi	r24, 0x03	; 3
 818:	67 e0       	ldi	r22, 0x07	; 7
 81a:	41 e0       	ldi	r20, 0x01	; 1
 81c:	0e 94 49 00 	call	0x92	; 0x92 <DIO_SETpinDir>
	}
}
 820:	0f 90       	pop	r0
 822:	cf 91       	pop	r28
 824:	df 91       	pop	r29
 826:	08 95       	ret

00000828 <MOTOR_speed>:

void MOTOR_speed(uint8_t dutyCycle)//  30/60/90 (Start PWM and initialize duty cycle)
{
 828:	df 93       	push	r29
 82a:	cf 93       	push	r28
 82c:	0f 92       	push	r0
 82e:	cd b7       	in	r28, 0x3d	; 61
 830:	de b7       	in	r29, 0x3e	; 62
 832:	89 83       	std	Y+1, r24	; 0x01
	PWM_SetDutyCycle(dutyCycle);
 834:	89 81       	ldd	r24, Y+1	; 0x01
 836:	0e 94 d6 04 	call	0x9ac	; 0x9ac <PWM_SetDutyCycle>
}
 83a:	0f 90       	pop	r0
 83c:	cf 91       	pop	r28
 83e:	df 91       	pop	r29
 840:	08 95       	ret

00000842 <MOTOR_direction>:
void MOTOR_direction(uint8_t numMotor, uint8_t DIR)//  numMotor/(FWD,REV) (Set direction of specified motor) i.e (MOTOR_1, FWD) meaning motor 1, move forward
{
 842:	df 93       	push	r29
 844:	cf 93       	push	r28
 846:	00 d0       	rcall	.+0      	; 0x848 <MOTOR_direction+0x6>
 848:	cd b7       	in	r28, 0x3d	; 61
 84a:	de b7       	in	r29, 0x3e	; 62
 84c:	89 83       	std	Y+1, r24	; 0x01
 84e:	6a 83       	std	Y+2, r22	; 0x02
	if(MOTOR_1==numMotor)
 850:	89 81       	ldd	r24, Y+1	; 0x01
 852:	88 23       	and	r24, r24
 854:	e1 f4       	brne	.+56     	; 0x88e <__stack+0x2f>
	{
		if(FWD==DIR)
 856:	8a 81       	ldd	r24, Y+2	; 0x02
 858:	81 30       	cpi	r24, 0x01	; 1
 85a:	59 f4       	brne	.+22     	; 0x872 <__stack+0x13>
		{
			DIO_SETpinVal(MOTOR_PORT,MOTOR_DIR_1A,DIO_HIGH);
 85c:	83 e0       	ldi	r24, 0x03	; 3
 85e:	62 e0       	ldi	r22, 0x02	; 2
 860:	41 e0       	ldi	r20, 0x01	; 1
 862:	0e 94 58 01 	call	0x2b0	; 0x2b0 <DIO_SETpinVal>
			DIO_SETpinVal(MOTOR_PORT,MOTOR_DIR_1B,DIO_LOW);
 866:	83 e0       	ldi	r24, 0x03	; 3
 868:	63 e0       	ldi	r22, 0x03	; 3
 86a:	40 e0       	ldi	r20, 0x00	; 0
 86c:	0e 94 58 01 	call	0x2b0	; 0x2b0 <DIO_SETpinVal>
 870:	2c c0       	rjmp	.+88     	; 0x8ca <__stack+0x6b>
		}
		else if(REV==DIR)
 872:	8a 81       	ldd	r24, Y+2	; 0x02
 874:	88 23       	and	r24, r24
 876:	49 f5       	brne	.+82     	; 0x8ca <__stack+0x6b>
		{
			DIO_SETpinVal(MOTOR_PORT,MOTOR_DIR_1A,DIO_LOW);
 878:	83 e0       	ldi	r24, 0x03	; 3
 87a:	62 e0       	ldi	r22, 0x02	; 2
 87c:	40 e0       	ldi	r20, 0x00	; 0
 87e:	0e 94 58 01 	call	0x2b0	; 0x2b0 <DIO_SETpinVal>
			DIO_SETpinVal(MOTOR_PORT,MOTOR_DIR_1B,DIO_HIGH);
 882:	83 e0       	ldi	r24, 0x03	; 3
 884:	63 e0       	ldi	r22, 0x03	; 3
 886:	41 e0       	ldi	r20, 0x01	; 1
 888:	0e 94 58 01 	call	0x2b0	; 0x2b0 <DIO_SETpinVal>
 88c:	1e c0       	rjmp	.+60     	; 0x8ca <__stack+0x6b>
		}
	}
	else if(MOTOR_2==numMotor)
 88e:	89 81       	ldd	r24, Y+1	; 0x01
 890:	81 30       	cpi	r24, 0x01	; 1
 892:	d9 f4       	brne	.+54     	; 0x8ca <__stack+0x6b>
	{
		if(FWD==DIR)
 894:	8a 81       	ldd	r24, Y+2	; 0x02
 896:	81 30       	cpi	r24, 0x01	; 1
 898:	59 f4       	brne	.+22     	; 0x8b0 <__stack+0x51>
		{
			DIO_SETpinVal(MOTOR_PORT,MOTOR_DIR_2A,DIO_HIGH);
 89a:	83 e0       	ldi	r24, 0x03	; 3
 89c:	66 e0       	ldi	r22, 0x06	; 6
 89e:	41 e0       	ldi	r20, 0x01	; 1
 8a0:	0e 94 58 01 	call	0x2b0	; 0x2b0 <DIO_SETpinVal>
			DIO_SETpinVal(MOTOR_PORT,MOTOR_DIR_2B,DIO_LOW);
 8a4:	83 e0       	ldi	r24, 0x03	; 3
 8a6:	67 e0       	ldi	r22, 0x07	; 7
 8a8:	40 e0       	ldi	r20, 0x00	; 0
 8aa:	0e 94 58 01 	call	0x2b0	; 0x2b0 <DIO_SETpinVal>
 8ae:	0d c0       	rjmp	.+26     	; 0x8ca <__stack+0x6b>
		}
		else if(REV==DIR)
 8b0:	8a 81       	ldd	r24, Y+2	; 0x02
 8b2:	88 23       	and	r24, r24
 8b4:	51 f4       	brne	.+20     	; 0x8ca <__stack+0x6b>
		{
			DIO_SETpinVal(MOTOR_PORT,MOTOR_DIR_2A,DIO_LOW);
 8b6:	83 e0       	ldi	r24, 0x03	; 3
 8b8:	66 e0       	ldi	r22, 0x06	; 6
 8ba:	40 e0       	ldi	r20, 0x00	; 0
 8bc:	0e 94 58 01 	call	0x2b0	; 0x2b0 <DIO_SETpinVal>
			DIO_SETpinVal(MOTOR_PORT,MOTOR_DIR_2B,DIO_HIGH);
 8c0:	83 e0       	ldi	r24, 0x03	; 3
 8c2:	67 e0       	ldi	r22, 0x07	; 7
 8c4:	41 e0       	ldi	r20, 0x01	; 1
 8c6:	0e 94 58 01 	call	0x2b0	; 0x2b0 <DIO_SETpinVal>
		}
	}
	
}
 8ca:	0f 90       	pop	r0
 8cc:	0f 90       	pop	r0
 8ce:	cf 91       	pop	r28
 8d0:	df 91       	pop	r29
 8d2:	08 95       	ret

000008d4 <MOTOR_off>:
void MOTOR_off(uint8_t numMotor)// stop specified motor (writes LOW on DIR data pins)
{
 8d4:	df 93       	push	r29
 8d6:	cf 93       	push	r28
 8d8:	0f 92       	push	r0
 8da:	cd b7       	in	r28, 0x3d	; 61
 8dc:	de b7       	in	r29, 0x3e	; 62
 8de:	89 83       	std	Y+1, r24	; 0x01
	if(MOTOR_1==numMotor)
 8e0:	89 81       	ldd	r24, Y+1	; 0x01
 8e2:	88 23       	and	r24, r24
 8e4:	59 f4       	brne	.+22     	; 0x8fc <MOTOR_off+0x28>
	{
		DIO_SETpinVal(MOTOR_PORT,MOTOR_DIR_1A,DIO_LOW);
 8e6:	83 e0       	ldi	r24, 0x03	; 3
 8e8:	62 e0       	ldi	r22, 0x02	; 2
 8ea:	40 e0       	ldi	r20, 0x00	; 0
 8ec:	0e 94 58 01 	call	0x2b0	; 0x2b0 <DIO_SETpinVal>
		DIO_SETpinVal(MOTOR_PORT,MOTOR_DIR_1B,DIO_LOW);
 8f0:	83 e0       	ldi	r24, 0x03	; 3
 8f2:	63 e0       	ldi	r22, 0x03	; 3
 8f4:	40 e0       	ldi	r20, 0x00	; 0
 8f6:	0e 94 58 01 	call	0x2b0	; 0x2b0 <DIO_SETpinVal>
 8fa:	0d c0       	rjmp	.+26     	; 0x916 <MOTOR_off+0x42>
	}
	else if(MOTOR_2==numMotor)
 8fc:	89 81       	ldd	r24, Y+1	; 0x01
 8fe:	81 30       	cpi	r24, 0x01	; 1
 900:	51 f4       	brne	.+20     	; 0x916 <MOTOR_off+0x42>
	{
		DIO_SETpinVal(MOTOR_PORT,MOTOR_DIR_2A,DIO_LOW);
 902:	83 e0       	ldi	r24, 0x03	; 3
 904:	66 e0       	ldi	r22, 0x06	; 6
 906:	40 e0       	ldi	r20, 0x00	; 0
 908:	0e 94 58 01 	call	0x2b0	; 0x2b0 <DIO_SETpinVal>
		DIO_SETpinVal(MOTOR_PORT,MOTOR_DIR_2B,DIO_LOW);
 90c:	83 e0       	ldi	r24, 0x03	; 3
 90e:	67 e0       	ldi	r22, 0x07	; 7
 910:	40 e0       	ldi	r20, 0x00	; 0
 912:	0e 94 58 01 	call	0x2b0	; 0x2b0 <DIO_SETpinVal>
	}
}
 916:	0f 90       	pop	r0
 918:	cf 91       	pop	r28
 91a:	df 91       	pop	r29
 91c:	08 95       	ret

0000091e <PWM_vidInit>:


static uint8_t PWM_timer_count = 0;
static uint8_t PWM_dutyCycle=0;

void PWM_vidInit(void){
 91e:	df 93       	push	r29
 920:	cf 93       	push	r28
 922:	cd b7       	in	r28, 0x3d	; 61
 924:	de b7       	in	r29, 0x3e	; 62
    SetCallBack_Timer0OVF(PWM_vidstart);
 926:	89 ea       	ldi	r24, 0xA9	; 169
 928:	94 e0       	ldi	r25, 0x04	; 4
 92a:	0e 94 51 05 	call	0xaa2	; 0xaa2 <SetCallBack_Timer0OVF>
    TIMER_vidTimer0Init();
 92e:	0e 94 e3 04 	call	0x9c6	; 0x9c6 <TIMER_vidTimer0Init>
    DIO_SETpinDir(PWM_PORT1 , PWM_PIN1 , OUTPUT );
 932:	83 e0       	ldi	r24, 0x03	; 3
 934:	64 e0       	ldi	r22, 0x04	; 4
 936:	41 e0       	ldi	r20, 0x01	; 1
 938:	0e 94 49 00 	call	0x92	; 0x92 <DIO_SETpinDir>
    DIO_SETpinDir(PWM_PORT2 , PWM_PIN2 , OUTPUT );
 93c:	83 e0       	ldi	r24, 0x03	; 3
 93e:	65 e0       	ldi	r22, 0x05	; 5
 940:	41 e0       	ldi	r20, 0x01	; 1
 942:	0e 94 49 00 	call	0x92	; 0x92 <DIO_SETpinDir>
   // DIO_vidSetPinDirection(PWM_PORT3 , PWM_PIN3 , OUTPUT );
    TIMER_vidTimer0Start(PWM_INTIAL_TIMER_VALUE);
 946:	87 ee       	ldi	r24, 0xE7	; 231
 948:	0e 94 f4 04 	call	0x9e8	; 0x9e8 <TIMER_vidTimer0Start>
}
 94c:	cf 91       	pop	r28
 94e:	df 91       	pop	r29
 950:	08 95       	ret

00000952 <PWM_vidstart>:

// the callback function when the timer overflow 
void PWM_vidstart(void)
{
 952:	df 93       	push	r29
 954:	cf 93       	push	r28
 956:	cd b7       	in	r28, 0x3d	; 61
 958:	de b7       	in	r29, 0x3e	; 62
    PWM_timer_count++;
 95a:	80 91 70 00 	lds	r24, 0x0070
 95e:	8f 5f       	subi	r24, 0xFF	; 255
 960:	80 93 70 00 	sts	0x0070, r24
    if (PWM_timer_count == PWM_dutyCycle)
 964:	90 91 70 00 	lds	r25, 0x0070
 968:	80 91 71 00 	lds	r24, 0x0071
 96c:	98 17       	cp	r25, r24
 96e:	59 f4       	brne	.+22     	; 0x986 <PWM_vidstart+0x34>
    {
        DIO_SETpinVal(PWM_PORT1 , PWM_PIN1 , STD_LOW);
 970:	83 e0       	ldi	r24, 0x03	; 3
 972:	64 e0       	ldi	r22, 0x04	; 4
 974:	40 e0       	ldi	r20, 0x00	; 0
 976:	0e 94 58 01 	call	0x2b0	; 0x2b0 <DIO_SETpinVal>
        DIO_SETpinVal(PWM_PORT2 , PWM_PIN2 , STD_LOW);
 97a:	83 e0       	ldi	r24, 0x03	; 3
 97c:	65 e0       	ldi	r22, 0x05	; 5
 97e:	40 e0       	ldi	r20, 0x00	; 0
 980:	0e 94 58 01 	call	0x2b0	; 0x2b0 <DIO_SETpinVal>
 984:	10 c0       	rjmp	.+32     	; 0x9a6 <PWM_vidstart+0x54>
       // DIO_vidSetPinValue(PWM_PORT3 , PWM_PIN3 , STD_LOW);
        
    }
    else if(PWM_timer_count >= 100)
 986:	80 91 70 00 	lds	r24, 0x0070
 98a:	84 36       	cpi	r24, 0x64	; 100
 98c:	60 f0       	brcs	.+24     	; 0x9a6 <PWM_vidstart+0x54>
    {
        PWM_timer_count = 0;
 98e:	10 92 70 00 	sts	0x0070, r1
        DIO_SETpinVal(PWM_PORT1 , PWM_PIN1 , STD_HIGH);
 992:	83 e0       	ldi	r24, 0x03	; 3
 994:	64 e0       	ldi	r22, 0x04	; 4
 996:	41 e0       	ldi	r20, 0x01	; 1
 998:	0e 94 58 01 	call	0x2b0	; 0x2b0 <DIO_SETpinVal>
        DIO_SETpinVal(PWM_PORT2 , PWM_PIN2 , STD_HIGH);
 99c:	83 e0       	ldi	r24, 0x03	; 3
 99e:	65 e0       	ldi	r22, 0x05	; 5
 9a0:	41 e0       	ldi	r20, 0x01	; 1
 9a2:	0e 94 58 01 	call	0x2b0	; 0x2b0 <DIO_SETpinVal>
    }
    else
    {
        // do nothing
    }
}
 9a6:	cf 91       	pop	r28
 9a8:	df 91       	pop	r29
 9aa:	08 95       	ret

000009ac <PWM_SetDutyCycle>:

//function to change dutycycle
void PWM_SetDutyCycle(uint8_t dutyc){
 9ac:	df 93       	push	r29
 9ae:	cf 93       	push	r28
 9b0:	0f 92       	push	r0
 9b2:	cd b7       	in	r28, 0x3d	; 61
 9b4:	de b7       	in	r29, 0x3e	; 62
 9b6:	89 83       	std	Y+1, r24	; 0x01
    PWM_dutyCycle = dutyc;
 9b8:	89 81       	ldd	r24, Y+1	; 0x01
 9ba:	80 93 71 00 	sts	0x0071, r24
}
 9be:	0f 90       	pop	r0
 9c0:	cf 91       	pop	r28
 9c2:	df 91       	pop	r29
 9c4:	08 95       	ret

000009c6 <TIMER_vidTimer0Init>:
void static (*CallBack_Timer0OVF)(void) = NULL_PTR;

static uint8_t gu8_intial_value = 0;

void TIMER_vidTimer0Init(void)
{
 9c6:	df 93       	push	r29
 9c8:	cf 93       	push	r28
 9ca:	cd b7       	in	r28, 0x3d	; 61
 9cc:	de b7       	in	r29, 0x3e	; 62


    // setting waveform generation mode  ctc or normal
#if ( TIMER_0_MODE == NORMAL)
    TCCR0 = 0;
 9ce:	e3 e5       	ldi	r30, 0x53	; 83
 9d0:	f0 e0       	ldi	r31, 0x00	; 0
 9d2:	10 82       	st	Z, r1
    if( TIMER_0_OVF_INT == STD_ON){
        TIMSK |= 1;
 9d4:	a9 e5       	ldi	r26, 0x59	; 89
 9d6:	b0 e0       	ldi	r27, 0x00	; 0
 9d8:	e9 e5       	ldi	r30, 0x59	; 89
 9da:	f0 e0       	ldi	r31, 0x00	; 0
 9dc:	80 81       	ld	r24, Z
 9de:	81 60       	ori	r24, 0x01	; 1
 9e0:	8c 93       	st	X, r24
    {
        //do nothing
    }
#endif

}
 9e2:	cf 91       	pop	r28
 9e4:	df 91       	pop	r29
 9e6:	08 95       	ret

000009e8 <TIMER_vidTimer0Start>:
void TIMER_vidTimer0Start(uint8_t intial_value){
 9e8:	df 93       	push	r29
 9ea:	cf 93       	push	r28
 9ec:	0f 92       	push	r0
 9ee:	cd b7       	in	r28, 0x3d	; 61
 9f0:	de b7       	in	r29, 0x3e	; 62
 9f2:	89 83       	std	Y+1, r24	; 0x01
    TIMER_vidTimer0SetInitValue(intial_value);           // setting intial value
 9f4:	89 81       	ldd	r24, Y+1	; 0x01
 9f6:	0e 94 2d 05 	call	0xa5a	; 0xa5a <TIMER_vidTimer0SetInitValue>
    TCCR0 |= TIMER_0_PRESCALER;    // setting the prescaler
 9fa:	a3 e5       	ldi	r26, 0x53	; 83
 9fc:	b0 e0       	ldi	r27, 0x00	; 0
 9fe:	e3 e5       	ldi	r30, 0x53	; 83
 a00:	f0 e0       	ldi	r31, 0x00	; 0
 a02:	80 81       	ld	r24, Z
 a04:	83 60       	ori	r24, 0x03	; 3
 a06:	8c 93       	st	X, r24
}
 a08:	0f 90       	pop	r0
 a0a:	cf 91       	pop	r28
 a0c:	df 91       	pop	r29
 a0e:	08 95       	ret

00000a10 <TIMER_vidTimer0Stop>:

void TIMER_vidTimer0Stop(void){
 a10:	df 93       	push	r29
 a12:	cf 93       	push	r28
 a14:	cd b7       	in	r28, 0x3d	; 61
 a16:	de b7       	in	r29, 0x3e	; 62
    TCCR0 &= ~(0b111);  // clearing the prescaler bits 
 a18:	a3 e5       	ldi	r26, 0x53	; 83
 a1a:	b0 e0       	ldi	r27, 0x00	; 0
 a1c:	e3 e5       	ldi	r30, 0x53	; 83
 a1e:	f0 e0       	ldi	r31, 0x00	; 0
 a20:	80 81       	ld	r24, Z
 a22:	88 7f       	andi	r24, 0xF8	; 248
 a24:	8c 93       	st	X, r24
}
 a26:	cf 91       	pop	r28
 a28:	df 91       	pop	r29
 a2a:	08 95       	ret

00000a2c <TIMER_u8Timer0_OVFflag>:

uint8_t TIMER_u8Timer0_OVFflag(void){
 a2c:	df 93       	push	r29
 a2e:	cf 93       	push	r28
 a30:	cd b7       	in	r28, 0x3d	; 61
 a32:	de b7       	in	r29, 0x3e	; 62
return GET_BIT(TIFR,0);
 a34:	e8 e5       	ldi	r30, 0x58	; 88
 a36:	f0 e0       	ldi	r31, 0x00	; 0
 a38:	80 81       	ld	r24, Z
 a3a:	81 70       	andi	r24, 0x01	; 1
}
 a3c:	cf 91       	pop	r28
 a3e:	df 91       	pop	r29
 a40:	08 95       	ret

00000a42 <TIMER_u8Timer0_CTCflag>:

uint8_t TIMER_u8Timer0_CTCflag(void){
 a42:	df 93       	push	r29
 a44:	cf 93       	push	r28
 a46:	cd b7       	in	r28, 0x3d	; 61
 a48:	de b7       	in	r29, 0x3e	; 62
return GET_BIT(TIFR,1);
 a4a:	e8 e5       	ldi	r30, 0x58	; 88
 a4c:	f0 e0       	ldi	r31, 0x00	; 0
 a4e:	80 81       	ld	r24, Z
 a50:	86 95       	lsr	r24
 a52:	81 70       	andi	r24, 0x01	; 1
}
 a54:	cf 91       	pop	r28
 a56:	df 91       	pop	r29
 a58:	08 95       	ret

00000a5a <TIMER_vidTimer0SetInitValue>:

void TIMER_vidTimer0SetInitValue(uint8_t intial_value){
 a5a:	df 93       	push	r29
 a5c:	cf 93       	push	r28
 a5e:	0f 92       	push	r0
 a60:	cd b7       	in	r28, 0x3d	; 61
 a62:	de b7       	in	r29, 0x3e	; 62
 a64:	89 83       	std	Y+1, r24	; 0x01
    gu8_intial_value = intial_value ;
 a66:	89 81       	ldd	r24, Y+1	; 0x01
 a68:	80 93 76 00 	sts	0x0076, r24
    TCNT0  = gu8_intial_value; 
 a6c:	e2 e5       	ldi	r30, 0x52	; 82
 a6e:	f0 e0       	ldi	r31, 0x00	; 0
 a70:	80 91 76 00 	lds	r24, 0x0076
 a74:	80 83       	st	Z, r24
}
 a76:	0f 90       	pop	r0
 a78:	cf 91       	pop	r28
 a7a:	df 91       	pop	r29
 a7c:	08 95       	ret

00000a7e <SetCallBack_Timer0CTC>:


void SetCallBack_Timer0CTC(void(*func)(void)){
 a7e:	df 93       	push	r29
 a80:	cf 93       	push	r28
 a82:	00 d0       	rcall	.+0      	; 0xa84 <SetCallBack_Timer0CTC+0x6>
 a84:	cd b7       	in	r28, 0x3d	; 61
 a86:	de b7       	in	r29, 0x3e	; 62
 a88:	9a 83       	std	Y+2, r25	; 0x02
 a8a:	89 83       	std	Y+1, r24	; 0x01
	CallBack_Timer0CTC=func;
 a8c:	89 81       	ldd	r24, Y+1	; 0x01
 a8e:	9a 81       	ldd	r25, Y+2	; 0x02
 a90:	90 93 73 00 	sts	0x0073, r25
 a94:	80 93 72 00 	sts	0x0072, r24
}
 a98:	0f 90       	pop	r0
 a9a:	0f 90       	pop	r0
 a9c:	cf 91       	pop	r28
 a9e:	df 91       	pop	r29
 aa0:	08 95       	ret

00000aa2 <SetCallBack_Timer0OVF>:


void SetCallBack_Timer0OVF(void(*func)(void)){
 aa2:	df 93       	push	r29
 aa4:	cf 93       	push	r28
 aa6:	00 d0       	rcall	.+0      	; 0xaa8 <SetCallBack_Timer0OVF+0x6>
 aa8:	cd b7       	in	r28, 0x3d	; 61
 aaa:	de b7       	in	r29, 0x3e	; 62
 aac:	9a 83       	std	Y+2, r25	; 0x02
 aae:	89 83       	std	Y+1, r24	; 0x01
	CallBack_Timer0OVF=func;
 ab0:	89 81       	ldd	r24, Y+1	; 0x01
 ab2:	9a 81       	ldd	r25, Y+2	; 0x02
 ab4:	90 93 75 00 	sts	0x0075, r25
 ab8:	80 93 74 00 	sts	0x0074, r24
}
 abc:	0f 90       	pop	r0
 abe:	0f 90       	pop	r0
 ac0:	cf 91       	pop	r28
 ac2:	df 91       	pop	r29
 ac4:	08 95       	ret

00000ac6 <__vector_10>:


void __vector_10(void)__attribute__((signal,__INTR_ATTRS));
void  __vector_10(void){
 ac6:	1f 92       	push	r1
 ac8:	0f 92       	push	r0
 aca:	0f b6       	in	r0, 0x3f	; 63
 acc:	0f 92       	push	r0
 ace:	11 24       	eor	r1, r1
 ad0:	2f 93       	push	r18
 ad2:	3f 93       	push	r19
 ad4:	4f 93       	push	r20
 ad6:	5f 93       	push	r21
 ad8:	6f 93       	push	r22
 ada:	7f 93       	push	r23
 adc:	8f 93       	push	r24
 ade:	9f 93       	push	r25
 ae0:	af 93       	push	r26
 ae2:	bf 93       	push	r27
 ae4:	ef 93       	push	r30
 ae6:	ff 93       	push	r31
 ae8:	df 93       	push	r29
 aea:	cf 93       	push	r28
 aec:	cd b7       	in	r28, 0x3d	; 61
 aee:	de b7       	in	r29, 0x3e	; 62
    if (CallBack_Timer0CTC != NULL_PTR)
 af0:	80 91 72 00 	lds	r24, 0x0072
 af4:	90 91 73 00 	lds	r25, 0x0073
 af8:	00 97       	sbiw	r24, 0x00	; 0
 afa:	29 f0       	breq	.+10     	; 0xb06 <__vector_10+0x40>
    {
        CallBack_Timer0CTC();
 afc:	e0 91 72 00 	lds	r30, 0x0072
 b00:	f0 91 73 00 	lds	r31, 0x0073
 b04:	09 95       	icall
    }
    

}
 b06:	cf 91       	pop	r28
 b08:	df 91       	pop	r29
 b0a:	ff 91       	pop	r31
 b0c:	ef 91       	pop	r30
 b0e:	bf 91       	pop	r27
 b10:	af 91       	pop	r26
 b12:	9f 91       	pop	r25
 b14:	8f 91       	pop	r24
 b16:	7f 91       	pop	r23
 b18:	6f 91       	pop	r22
 b1a:	5f 91       	pop	r21
 b1c:	4f 91       	pop	r20
 b1e:	3f 91       	pop	r19
 b20:	2f 91       	pop	r18
 b22:	0f 90       	pop	r0
 b24:	0f be       	out	0x3f, r0	; 63
 b26:	0f 90       	pop	r0
 b28:	1f 90       	pop	r1
 b2a:	18 95       	reti

00000b2c <__vector_11>:

void __vector_11(void)__attribute__((signal,__INTR_ATTRS));
void  __vector_11(void){
 b2c:	1f 92       	push	r1
 b2e:	0f 92       	push	r0
 b30:	0f b6       	in	r0, 0x3f	; 63
 b32:	0f 92       	push	r0
 b34:	11 24       	eor	r1, r1
 b36:	2f 93       	push	r18
 b38:	3f 93       	push	r19
 b3a:	4f 93       	push	r20
 b3c:	5f 93       	push	r21
 b3e:	6f 93       	push	r22
 b40:	7f 93       	push	r23
 b42:	8f 93       	push	r24
 b44:	9f 93       	push	r25
 b46:	af 93       	push	r26
 b48:	bf 93       	push	r27
 b4a:	ef 93       	push	r30
 b4c:	ff 93       	push	r31
 b4e:	df 93       	push	r29
 b50:	cf 93       	push	r28
 b52:	cd b7       	in	r28, 0x3d	; 61
 b54:	de b7       	in	r29, 0x3e	; 62
    TCNT0  = gu8_intial_value;
 b56:	e2 e5       	ldi	r30, 0x52	; 82
 b58:	f0 e0       	ldi	r31, 0x00	; 0
 b5a:	80 91 76 00 	lds	r24, 0x0076
 b5e:	80 83       	st	Z, r24
 if (CallBack_Timer0OVF != NULL_PTR)
 b60:	80 91 74 00 	lds	r24, 0x0074
 b64:	90 91 75 00 	lds	r25, 0x0075
 b68:	00 97       	sbiw	r24, 0x00	; 0
 b6a:	29 f0       	breq	.+10     	; 0xb76 <__vector_11+0x4a>
    {
        CallBack_Timer0OVF();
 b6c:	e0 91 74 00 	lds	r30, 0x0074
 b70:	f0 91 75 00 	lds	r31, 0x0075
 b74:	09 95       	icall
    }

}
 b76:	cf 91       	pop	r28
 b78:	df 91       	pop	r29
 b7a:	ff 91       	pop	r31
 b7c:	ef 91       	pop	r30
 b7e:	bf 91       	pop	r27
 b80:	af 91       	pop	r26
 b82:	9f 91       	pop	r25
 b84:	8f 91       	pop	r24
 b86:	7f 91       	pop	r23
 b88:	6f 91       	pop	r22
 b8a:	5f 91       	pop	r21
 b8c:	4f 91       	pop	r20
 b8e:	3f 91       	pop	r19
 b90:	2f 91       	pop	r18
 b92:	0f 90       	pop	r0
 b94:	0f be       	out	0x3f, r0	; 63
 b96:	0f 90       	pop	r0
 b98:	1f 90       	pop	r1
 b9a:	18 95       	reti

00000b9c <main>:
void MOTORS_OFF();
void LEDS_INIT(void);


void main()
{
 b9c:	df 93       	push	r29
 b9e:	cf 93       	push	r28
 ba0:	00 d0       	rcall	.+0      	; 0xba2 <main+0x6>
 ba2:	0f 92       	push	r0
 ba4:	cd b7       	in	r28, 0x3d	; 61
 ba6:	de b7       	in	r29, 0x3e	; 62
	 GlobalInerruptEnable();
 ba8:	0e 94 f9 02 	call	0x5f2	; 0x5f2 <GlobalInerruptEnable>
	 KPD_init();
 bac:	0e 94 07 03 	call	0x60e	; 0x60e <KPD_init>
	 MOTOR_init(MOTOR_1);
 bb0:	80 e0       	ldi	r24, 0x00	; 0
 bb2:	0e 94 ed 03 	call	0x7da	; 0x7da <MOTOR_init>
	 MOTOR_init(MOTOR_2);
 bb6:	81 e0       	ldi	r24, 0x01	; 1
 bb8:	0e 94 ed 03 	call	0x7da	; 0x7da <MOTOR_init>

	 uint8_t Speed_level =0;
 bbc:	19 82       	std	Y+1, r1	; 0x01

	 LEDS_INIT();
 bbe:	0e 94 e1 06 	call	0xdc2	; 0xdc2 <LEDS_INIT>

	while(1)
	{
		if( SPEED_BUTTON == KPD_u8GetPressedKey())
 bc2:	0e 94 4a 03 	call	0x694	; 0x694 <KPD_u8GetPressedKey>
 bc6:	88 30       	cpi	r24, 0x08	; 8
 bc8:	09 f0       	breq	.+2      	; 0xbcc <main+0x30>
 bca:	93 c0       	rjmp	.+294    	; 0xcf2 <main+0x156>
		{
			Speed_level++;
 bcc:	89 81       	ldd	r24, Y+1	; 0x01
 bce:	8f 5f       	subi	r24, 0xFF	; 255
 bd0:	89 83       	std	Y+1, r24	; 0x01
			if(Speed_level >4)
 bd2:	89 81       	ldd	r24, Y+1	; 0x01
 bd4:	85 30       	cpi	r24, 0x05	; 5
 bd6:	10 f0       	brcs	.+4      	; 0xbdc <main+0x40>
			{
				Speed_level =1;
 bd8:	81 e0       	ldi	r24, 0x01	; 1
 bda:	89 83       	std	Y+1, r24	; 0x01
			}
			switch (Speed_level)
 bdc:	89 81       	ldd	r24, Y+1	; 0x01
 bde:	28 2f       	mov	r18, r24
 be0:	30 e0       	ldi	r19, 0x00	; 0
 be2:	3b 83       	std	Y+3, r19	; 0x03
 be4:	2a 83       	std	Y+2, r18	; 0x02
 be6:	8a 81       	ldd	r24, Y+2	; 0x02
 be8:	9b 81       	ldd	r25, Y+3	; 0x03
 bea:	82 30       	cpi	r24, 0x02	; 2
 bec:	91 05       	cpc	r25, r1
 bee:	39 f1       	breq	.+78     	; 0xc3e <main+0xa2>
 bf0:	2a 81       	ldd	r18, Y+2	; 0x02
 bf2:	3b 81       	ldd	r19, Y+3	; 0x03
 bf4:	23 30       	cpi	r18, 0x03	; 3
 bf6:	31 05       	cpc	r19, r1
 bf8:	34 f4       	brge	.+12     	; 0xc06 <main+0x6a>
 bfa:	8a 81       	ldd	r24, Y+2	; 0x02
 bfc:	9b 81       	ldd	r25, Y+3	; 0x03
 bfe:	81 30       	cpi	r24, 0x01	; 1
 c00:	91 05       	cpc	r25, r1
 c02:	61 f0       	breq	.+24     	; 0xc1c <main+0x80>
 c04:	4e c0       	rjmp	.+156    	; 0xca2 <main+0x106>
 c06:	2a 81       	ldd	r18, Y+2	; 0x02
 c08:	3b 81       	ldd	r19, Y+3	; 0x03
 c0a:	23 30       	cpi	r18, 0x03	; 3
 c0c:	31 05       	cpc	r19, r1
 c0e:	41 f1       	breq	.+80     	; 0xc60 <main+0xc4>
 c10:	8a 81       	ldd	r24, Y+2	; 0x02
 c12:	9b 81       	ldd	r25, Y+3	; 0x03
 c14:	84 30       	cpi	r24, 0x04	; 4
 c16:	91 05       	cpc	r25, r1
 c18:	a1 f1       	breq	.+104    	; 0xc82 <main+0xe6>
 c1a:	43 c0       	rjmp	.+134    	; 0xca2 <main+0x106>
			{
			case  1:
				 LED_ON(LED_PORTB,4);
 c1c:	81 e0       	ldi	r24, 0x01	; 1
 c1e:	64 e0       	ldi	r22, 0x04	; 4
 c20:	0e 94 cb 03 	call	0x796	; 0x796 <LED_ON>
				LED_OFF(LED_PORTB,5);
 c24:	81 e0       	ldi	r24, 0x01	; 1
 c26:	65 e0       	ldi	r22, 0x05	; 5
 c28:	0e 94 dc 03 	call	0x7b8	; 0x7b8 <LED_OFF>
				LED_OFF(LED_PORTB,6);
 c2c:	81 e0       	ldi	r24, 0x01	; 1
 c2e:	66 e0       	ldi	r22, 0x06	; 6
 c30:	0e 94 dc 03 	call	0x7b8	; 0x7b8 <LED_OFF>
				LED_OFF(LED_PORTB,7);
 c34:	81 e0       	ldi	r24, 0x01	; 1
 c36:	67 e0       	ldi	r22, 0x07	; 7
 c38:	0e 94 dc 03 	call	0x7b8	; 0x7b8 <LED_OFF>
 c3c:	32 c0       	rjmp	.+100    	; 0xca2 <main+0x106>
			break;
			case  2:
				LED_OFF(LED_PORTB,4);
 c3e:	81 e0       	ldi	r24, 0x01	; 1
 c40:	64 e0       	ldi	r22, 0x04	; 4
 c42:	0e 94 dc 03 	call	0x7b8	; 0x7b8 <LED_OFF>
				 LED_ON(LED_PORTB,5);
 c46:	81 e0       	ldi	r24, 0x01	; 1
 c48:	65 e0       	ldi	r22, 0x05	; 5
 c4a:	0e 94 cb 03 	call	0x796	; 0x796 <LED_ON>
				LED_OFF(LED_PORTB,6);
 c4e:	81 e0       	ldi	r24, 0x01	; 1
 c50:	66 e0       	ldi	r22, 0x06	; 6
 c52:	0e 94 dc 03 	call	0x7b8	; 0x7b8 <LED_OFF>
				LED_OFF(LED_PORTB,7);
 c56:	81 e0       	ldi	r24, 0x01	; 1
 c58:	67 e0       	ldi	r22, 0x07	; 7
 c5a:	0e 94 dc 03 	call	0x7b8	; 0x7b8 <LED_OFF>
 c5e:	21 c0       	rjmp	.+66     	; 0xca2 <main+0x106>
			break;
			case 3:
				LED_OFF(LED_PORTB,4);
 c60:	81 e0       	ldi	r24, 0x01	; 1
 c62:	64 e0       	ldi	r22, 0x04	; 4
 c64:	0e 94 dc 03 	call	0x7b8	; 0x7b8 <LED_OFF>
				LED_OFF(LED_PORTB,5);
 c68:	81 e0       	ldi	r24, 0x01	; 1
 c6a:	65 e0       	ldi	r22, 0x05	; 5
 c6c:	0e 94 dc 03 	call	0x7b8	; 0x7b8 <LED_OFF>
				 LED_ON(LED_PORTB,6);
 c70:	81 e0       	ldi	r24, 0x01	; 1
 c72:	66 e0       	ldi	r22, 0x06	; 6
 c74:	0e 94 cb 03 	call	0x796	; 0x796 <LED_ON>
				LED_OFF(LED_PORTB,7);
 c78:	81 e0       	ldi	r24, 0x01	; 1
 c7a:	67 e0       	ldi	r22, 0x07	; 7
 c7c:	0e 94 dc 03 	call	0x7b8	; 0x7b8 <LED_OFF>
 c80:	10 c0       	rjmp	.+32     	; 0xca2 <main+0x106>
			break;
			case  4:
				LED_OFF(LED_PORTB,4);
 c82:	81 e0       	ldi	r24, 0x01	; 1
 c84:	64 e0       	ldi	r22, 0x04	; 4
 c86:	0e 94 dc 03 	call	0x7b8	; 0x7b8 <LED_OFF>
				LED_OFF(LED_PORTB,5);
 c8a:	81 e0       	ldi	r24, 0x01	; 1
 c8c:	65 e0       	ldi	r22, 0x05	; 5
 c8e:	0e 94 dc 03 	call	0x7b8	; 0x7b8 <LED_OFF>
				LED_OFF(LED_PORTB,6);
 c92:	81 e0       	ldi	r24, 0x01	; 1
 c94:	66 e0       	ldi	r22, 0x06	; 6
 c96:	0e 94 dc 03 	call	0x7b8	; 0x7b8 <LED_OFF>
				 LED_ON(LED_PORTB,7);
 c9a:	81 e0       	ldi	r24, 0x01	; 1
 c9c:	67 e0       	ldi	r22, 0x07	; 7
 c9e:	0e 94 cb 03 	call	0x796	; 0x796 <LED_ON>
			break;
			}
			while(SPEED_BUTTON == KPD_u8GetPressedKey())
 ca2:	0e 94 4a 03 	call	0x694	; 0x694 <KPD_u8GetPressedKey>
 ca6:	88 30       	cpi	r24, 0x08	; 8
 ca8:	e1 f3       	breq	.-8      	; 0xca2 <main+0x106>
 caa:	23 c0       	rjmp	.+70     	; 0xcf2 <main+0x156>
			}
		}

		while(MOVE_BUTTON == KPD_u8GetPressedKey() )
		{
			if(Speed_level ==1)
 cac:	89 81       	ldd	r24, Y+1	; 0x01
 cae:	81 30       	cpi	r24, 0x01	; 1
 cb0:	31 f4       	brne	.+12     	; 0xcbe <main+0x122>
			{
				MOTOR_speed(30);
 cb2:	8e e1       	ldi	r24, 0x1E	; 30
 cb4:	0e 94 14 04 	call	0x828	; 0x828 <MOTOR_speed>
				MOVE_FWD();
 cb8:	0e 94 a7 06 	call	0xd4e	; 0xd4e <MOVE_FWD>
 cbc:	1a c0       	rjmp	.+52     	; 0xcf2 <main+0x156>
			}
			else if (Speed_level == 2 )
 cbe:	89 81       	ldd	r24, Y+1	; 0x01
 cc0:	82 30       	cpi	r24, 0x02	; 2
 cc2:	31 f4       	brne	.+12     	; 0xcd0 <main+0x134>
			{
				MOTOR_speed(60);
 cc4:	8c e3       	ldi	r24, 0x3C	; 60
 cc6:	0e 94 14 04 	call	0x828	; 0x828 <MOTOR_speed>
				MOVE_FWD();
 cca:	0e 94 a7 06 	call	0xd4e	; 0xd4e <MOVE_FWD>
 cce:	11 c0       	rjmp	.+34     	; 0xcf2 <main+0x156>
			}
			else if (Speed_level == 3 )
 cd0:	89 81       	ldd	r24, Y+1	; 0x01
 cd2:	83 30       	cpi	r24, 0x03	; 3
 cd4:	31 f4       	brne	.+12     	; 0xce2 <main+0x146>
			{
				MOTOR_speed(90);
 cd6:	8a e5       	ldi	r24, 0x5A	; 90
 cd8:	0e 94 14 04 	call	0x828	; 0x828 <MOTOR_speed>
				MOVE_FWD();
 cdc:	0e 94 a7 06 	call	0xd4e	; 0xd4e <MOVE_FWD>
 ce0:	08 c0       	rjmp	.+16     	; 0xcf2 <main+0x156>
			}
			else if (Speed_level == 4 )
 ce2:	89 81       	ldd	r24, Y+1	; 0x01
 ce4:	84 30       	cpi	r24, 0x04	; 4
 ce6:	29 f4       	brne	.+10     	; 0xcf2 <main+0x156>
			{
				MOTOR_speed(30);
 ce8:	8e e1       	ldi	r24, 0x1E	; 30
 cea:	0e 94 14 04 	call	0x828	; 0x828 <MOTOR_speed>
				MOVE_REV();
 cee:	0e 94 98 06 	call	0xd30	; 0xd30 <MOVE_REV>
			{

			}
		}

		while(MOVE_BUTTON == KPD_u8GetPressedKey() )
 cf2:	0e 94 4a 03 	call	0x694	; 0x694 <KPD_u8GetPressedKey>
 cf6:	82 30       	cpi	r24, 0x02	; 2
 cf8:	c9 f2       	breq	.-78     	; 0xcac <main+0x110>
			{
				MOTOR_speed(30);
				MOVE_REV();
			}
		}
		MOTORS_OFF();
 cfa:	0e 94 d4 06 	call	0xda8	; 0xda8 <MOTORS_OFF>
 cfe:	05 c0       	rjmp	.+10     	; 0xd0a <main+0x16e>
		while(RIGHT_BUTTON == KPD_u8GetPressedKey() )
		{
			MOTOR_speed(30);
 d00:	8e e1       	ldi	r24, 0x1E	; 30
 d02:	0e 94 14 04 	call	0x828	; 0x828 <MOTOR_speed>
			MOVE_RIGHT();
 d06:	0e 94 b6 06 	call	0xd6c	; 0xd6c <MOVE_RIGHT>
				MOTOR_speed(30);
				MOVE_REV();
			}
		}
		MOTORS_OFF();
		while(RIGHT_BUTTON == KPD_u8GetPressedKey() )
 d0a:	0e 94 4a 03 	call	0x694	; 0x694 <KPD_u8GetPressedKey>
 d0e:	86 30       	cpi	r24, 0x06	; 6
 d10:	b9 f3       	breq	.-18     	; 0xd00 <main+0x164>
		{
			MOTOR_speed(30);
			MOVE_RIGHT();
		}
		MOTORS_OFF();
 d12:	0e 94 d4 06 	call	0xda8	; 0xda8 <MOTORS_OFF>
 d16:	05 c0       	rjmp	.+10     	; 0xd22 <main+0x186>
		while(LEFT_BUTTON == KPD_u8GetPressedKey() )
		{
			MOTOR_speed(30);
 d18:	8e e1       	ldi	r24, 0x1E	; 30
 d1a:	0e 94 14 04 	call	0x828	; 0x828 <MOTOR_speed>
			MOVE_LEFT();
 d1e:	0e 94 c5 06 	call	0xd8a	; 0xd8a <MOVE_LEFT>
		{
			MOTOR_speed(30);
			MOVE_RIGHT();
		}
		MOTORS_OFF();
		while(LEFT_BUTTON == KPD_u8GetPressedKey() )
 d22:	0e 94 4a 03 	call	0x694	; 0x694 <KPD_u8GetPressedKey>
 d26:	84 30       	cpi	r24, 0x04	; 4
 d28:	b9 f3       	breq	.-18     	; 0xd18 <main+0x17c>
		{
			MOTOR_speed(30);
			MOVE_LEFT();
		}
		MOTORS_OFF();
 d2a:	0e 94 d4 06 	call	0xda8	; 0xda8 <MOTORS_OFF>
 d2e:	49 cf       	rjmp	.-366    	; 0xbc2 <main+0x26>

00000d30 <MOVE_REV>:
	}
}


void MOVE_REV(void)
{
 d30:	df 93       	push	r29
 d32:	cf 93       	push	r28
 d34:	cd b7       	in	r28, 0x3d	; 61
 d36:	de b7       	in	r29, 0x3e	; 62
	MOTOR_direction(MOTOR_1, REV);
 d38:	80 e0       	ldi	r24, 0x00	; 0
 d3a:	60 e0       	ldi	r22, 0x00	; 0
 d3c:	0e 94 21 04 	call	0x842	; 0x842 <MOTOR_direction>
	MOTOR_direction(MOTOR_2, REV);
 d40:	81 e0       	ldi	r24, 0x01	; 1
 d42:	60 e0       	ldi	r22, 0x00	; 0
 d44:	0e 94 21 04 	call	0x842	; 0x842 <MOTOR_direction>
}
 d48:	cf 91       	pop	r28
 d4a:	df 91       	pop	r29
 d4c:	08 95       	ret

00000d4e <MOVE_FWD>:

void MOVE_FWD(void)
{
 d4e:	df 93       	push	r29
 d50:	cf 93       	push	r28
 d52:	cd b7       	in	r28, 0x3d	; 61
 d54:	de b7       	in	r29, 0x3e	; 62
	MOTOR_direction(MOTOR_1, FWD);
 d56:	80 e0       	ldi	r24, 0x00	; 0
 d58:	61 e0       	ldi	r22, 0x01	; 1
 d5a:	0e 94 21 04 	call	0x842	; 0x842 <MOTOR_direction>
	MOTOR_direction(MOTOR_2, FWD);
 d5e:	81 e0       	ldi	r24, 0x01	; 1
 d60:	61 e0       	ldi	r22, 0x01	; 1
 d62:	0e 94 21 04 	call	0x842	; 0x842 <MOTOR_direction>
}
 d66:	cf 91       	pop	r28
 d68:	df 91       	pop	r29
 d6a:	08 95       	ret

00000d6c <MOVE_RIGHT>:

void MOVE_RIGHT(void)
{
 d6c:	df 93       	push	r29
 d6e:	cf 93       	push	r28
 d70:	cd b7       	in	r28, 0x3d	; 61
 d72:	de b7       	in	r29, 0x3e	; 62
	MOTOR_direction(MOTOR_1, FWD);
 d74:	80 e0       	ldi	r24, 0x00	; 0
 d76:	61 e0       	ldi	r22, 0x01	; 1
 d78:	0e 94 21 04 	call	0x842	; 0x842 <MOTOR_direction>
	MOTOR_direction(MOTOR_2, REV);
 d7c:	81 e0       	ldi	r24, 0x01	; 1
 d7e:	60 e0       	ldi	r22, 0x00	; 0
 d80:	0e 94 21 04 	call	0x842	; 0x842 <MOTOR_direction>
}
 d84:	cf 91       	pop	r28
 d86:	df 91       	pop	r29
 d88:	08 95       	ret

00000d8a <MOVE_LEFT>:

void MOVE_LEFT(void)
{
 d8a:	df 93       	push	r29
 d8c:	cf 93       	push	r28
 d8e:	cd b7       	in	r28, 0x3d	; 61
 d90:	de b7       	in	r29, 0x3e	; 62
	MOTOR_direction(MOTOR_1, REV);
 d92:	80 e0       	ldi	r24, 0x00	; 0
 d94:	60 e0       	ldi	r22, 0x00	; 0
 d96:	0e 94 21 04 	call	0x842	; 0x842 <MOTOR_direction>
	MOTOR_direction(MOTOR_2, FWD);
 d9a:	81 e0       	ldi	r24, 0x01	; 1
 d9c:	61 e0       	ldi	r22, 0x01	; 1
 d9e:	0e 94 21 04 	call	0x842	; 0x842 <MOTOR_direction>
}
 da2:	cf 91       	pop	r28
 da4:	df 91       	pop	r29
 da6:	08 95       	ret

00000da8 <MOTORS_OFF>:

void MOTORS_OFF()
{
 da8:	df 93       	push	r29
 daa:	cf 93       	push	r28
 dac:	cd b7       	in	r28, 0x3d	; 61
 dae:	de b7       	in	r29, 0x3e	; 62
	MOTOR_off(MOTOR_1);
 db0:	80 e0       	ldi	r24, 0x00	; 0
 db2:	0e 94 6a 04 	call	0x8d4	; 0x8d4 <MOTOR_off>
	MOTOR_off(MOTOR_2);
 db6:	81 e0       	ldi	r24, 0x01	; 1
 db8:	0e 94 6a 04 	call	0x8d4	; 0x8d4 <MOTOR_off>
}
 dbc:	cf 91       	pop	r28
 dbe:	df 91       	pop	r29
 dc0:	08 95       	ret

00000dc2 <LEDS_INIT>:

void LEDS_INIT(void)
{
 dc2:	df 93       	push	r29
 dc4:	cf 93       	push	r28
 dc6:	cd b7       	in	r28, 0x3d	; 61
 dc8:	de b7       	in	r29, 0x3e	; 62
	LED_init(LED_PORTB,4);
 dca:	81 e0       	ldi	r24, 0x01	; 1
 dcc:	64 e0       	ldi	r22, 0x04	; 4
 dce:	0e 94 ba 03 	call	0x774	; 0x774 <LED_init>
	LED_init(LED_PORTB,5);
 dd2:	81 e0       	ldi	r24, 0x01	; 1
 dd4:	65 e0       	ldi	r22, 0x05	; 5
 dd6:	0e 94 ba 03 	call	0x774	; 0x774 <LED_init>
	LED_init(LED_PORTB,6);
 dda:	81 e0       	ldi	r24, 0x01	; 1
 ddc:	66 e0       	ldi	r22, 0x06	; 6
 dde:	0e 94 ba 03 	call	0x774	; 0x774 <LED_init>
	LED_init(LED_PORTB,7);
 de2:	81 e0       	ldi	r24, 0x01	; 1
 de4:	67 e0       	ldi	r22, 0x07	; 7
 de6:	0e 94 ba 03 	call	0x774	; 0x774 <LED_init>

}
 dea:	cf 91       	pop	r28
 dec:	df 91       	pop	r29
 dee:	08 95       	ret

00000df0 <_exit>:
 df0:	f8 94       	cli

00000df2 <__stop_program>:
 df2:	ff cf       	rjmp	.-2      	; 0xdf2 <__stop_program>
